
ctarget:     file format elf64-x86-64


Disassembly of section .init:

0000000000400c08 <_init>:
  400c08:	48 83 ec 08          	sub    $0x8,%rsp
  400c0c:	48 8b 05 e5 33 20 00 	mov    0x2033e5(%rip),%rax        # 603ff8 <__gmon_start__>
  400c13:	48 85 c0             	test   %rax,%rax
  400c16:	74 05                	je     400c1d <_init+0x15>
  400c18:	e8 33 02 00 00       	callq  400e50 <__gmon_start__@plt>
  400c1d:	48 83 c4 08          	add    $0x8,%rsp
  400c21:	c3                   	retq   

Disassembly of section .plt:

0000000000400c30 <.plt>:
  400c30:	ff 35 d2 33 20 00    	pushq  0x2033d2(%rip)        # 604008 <_GLOBAL_OFFSET_TABLE_+0x8>
  400c36:	ff 25 d4 33 20 00    	jmpq   *0x2033d4(%rip)        # 604010 <_GLOBAL_OFFSET_TABLE_+0x10>
  400c3c:	0f 1f 40 00          	nopl   0x0(%rax)

0000000000400c40 <__errno_location@plt>:
  400c40:	ff 25 d2 33 20 00    	jmpq   *0x2033d2(%rip)        # 604018 <__errno_location@GLIBC_2.2.5>
  400c46:	68 00 00 00 00       	pushq  $0x0
  400c4b:	e9 e0 ff ff ff       	jmpq   400c30 <.plt>

0000000000400c50 <srandom@plt>:
  400c50:	ff 25 ca 33 20 00    	jmpq   *0x2033ca(%rip)        # 604020 <srandom@GLIBC_2.2.5>
  400c56:	68 01 00 00 00       	pushq  $0x1
  400c5b:	e9 d0 ff ff ff       	jmpq   400c30 <.plt>

0000000000400c60 <strncmp@plt>:
  400c60:	ff 25 c2 33 20 00    	jmpq   *0x2033c2(%rip)        # 604028 <strncmp@GLIBC_2.2.5>
  400c66:	68 02 00 00 00       	pushq  $0x2
  400c6b:	e9 c0 ff ff ff       	jmpq   400c30 <.plt>

0000000000400c70 <strcpy@plt>:
  400c70:	ff 25 ba 33 20 00    	jmpq   *0x2033ba(%rip)        # 604030 <strcpy@GLIBC_2.2.5>
  400c76:	68 03 00 00 00       	pushq  $0x3
  400c7b:	e9 b0 ff ff ff       	jmpq   400c30 <.plt>

0000000000400c80 <puts@plt>:
  400c80:	ff 25 b2 33 20 00    	jmpq   *0x2033b2(%rip)        # 604038 <puts@GLIBC_2.2.5>
  400c86:	68 04 00 00 00       	pushq  $0x4
  400c8b:	e9 a0 ff ff ff       	jmpq   400c30 <.plt>

0000000000400c90 <write@plt>:
  400c90:	ff 25 aa 33 20 00    	jmpq   *0x2033aa(%rip)        # 604040 <write@GLIBC_2.2.5>
  400c96:	68 05 00 00 00       	pushq  $0x5
  400c9b:	e9 90 ff ff ff       	jmpq   400c30 <.plt>

0000000000400ca0 <__stack_chk_fail@plt>:
  400ca0:	ff 25 a2 33 20 00    	jmpq   *0x2033a2(%rip)        # 604048 <__stack_chk_fail@GLIBC_2.4>
  400ca6:	68 06 00 00 00       	pushq  $0x6
  400cab:	e9 80 ff ff ff       	jmpq   400c30 <.plt>

0000000000400cb0 <mmap@plt>:
  400cb0:	ff 25 9a 33 20 00    	jmpq   *0x20339a(%rip)        # 604050 <mmap@GLIBC_2.2.5>
  400cb6:	68 07 00 00 00       	pushq  $0x7
  400cbb:	e9 70 ff ff ff       	jmpq   400c30 <.plt>

0000000000400cc0 <memset@plt>:
  400cc0:	ff 25 92 33 20 00    	jmpq   *0x203392(%rip)        # 604058 <memset@GLIBC_2.2.5>
  400cc6:	68 08 00 00 00       	pushq  $0x8
  400ccb:	e9 60 ff ff ff       	jmpq   400c30 <.plt>

0000000000400cd0 <alarm@plt>:
  400cd0:	ff 25 8a 33 20 00    	jmpq   *0x20338a(%rip)        # 604060 <alarm@GLIBC_2.2.5>
  400cd6:	68 09 00 00 00       	pushq  $0x9
  400cdb:	e9 50 ff ff ff       	jmpq   400c30 <.plt>

0000000000400ce0 <close@plt>:
  400ce0:	ff 25 82 33 20 00    	jmpq   *0x203382(%rip)        # 604068 <close@GLIBC_2.2.5>
  400ce6:	68 0a 00 00 00       	pushq  $0xa
  400ceb:	e9 40 ff ff ff       	jmpq   400c30 <.plt>

0000000000400cf0 <read@plt>:
  400cf0:	ff 25 7a 33 20 00    	jmpq   *0x20337a(%rip)        # 604070 <read@GLIBC_2.2.5>
  400cf6:	68 0b 00 00 00       	pushq  $0xb
  400cfb:	e9 30 ff ff ff       	jmpq   400c30 <.plt>

0000000000400d00 <__libc_start_main@plt>:
  400d00:	ff 25 72 33 20 00    	jmpq   *0x203372(%rip)        # 604078 <__libc_start_main@GLIBC_2.2.5>
  400d06:	68 0c 00 00 00       	pushq  $0xc
  400d0b:	e9 20 ff ff ff       	jmpq   400c30 <.plt>

0000000000400d10 <signal@plt>:
  400d10:	ff 25 6a 33 20 00    	jmpq   *0x20336a(%rip)        # 604080 <signal@GLIBC_2.2.5>
  400d16:	68 0d 00 00 00       	pushq  $0xd
  400d1b:	e9 10 ff ff ff       	jmpq   400c30 <.plt>

0000000000400d20 <gethostbyname@plt>:
  400d20:	ff 25 62 33 20 00    	jmpq   *0x203362(%rip)        # 604088 <gethostbyname@GLIBC_2.2.5>
  400d26:	68 0e 00 00 00       	pushq  $0xe
  400d2b:	e9 00 ff ff ff       	jmpq   400c30 <.plt>

0000000000400d30 <__memmove_chk@plt>:
  400d30:	ff 25 5a 33 20 00    	jmpq   *0x20335a(%rip)        # 604090 <__memmove_chk@GLIBC_2.3.4>
  400d36:	68 0f 00 00 00       	pushq  $0xf
  400d3b:	e9 f0 fe ff ff       	jmpq   400c30 <.plt>

0000000000400d40 <strtol@plt>:
  400d40:	ff 25 52 33 20 00    	jmpq   *0x203352(%rip)        # 604098 <strtol@GLIBC_2.2.5>
  400d46:	68 10 00 00 00       	pushq  $0x10
  400d4b:	e9 e0 fe ff ff       	jmpq   400c30 <.plt>

0000000000400d50 <memcpy@plt>:
  400d50:	ff 25 4a 33 20 00    	jmpq   *0x20334a(%rip)        # 6040a0 <memcpy@GLIBC_2.14>
  400d56:	68 11 00 00 00       	pushq  $0x11
  400d5b:	e9 d0 fe ff ff       	jmpq   400c30 <.plt>

0000000000400d60 <time@plt>:
  400d60:	ff 25 42 33 20 00    	jmpq   *0x203342(%rip)        # 6040a8 <time@GLIBC_2.2.5>
  400d66:	68 12 00 00 00       	pushq  $0x12
  400d6b:	e9 c0 fe ff ff       	jmpq   400c30 <.plt>

0000000000400d70 <random@plt>:
  400d70:	ff 25 3a 33 20 00    	jmpq   *0x20333a(%rip)        # 6040b0 <random@GLIBC_2.2.5>
  400d76:	68 13 00 00 00       	pushq  $0x13
  400d7b:	e9 b0 fe ff ff       	jmpq   400c30 <.plt>

0000000000400d80 <_IO_getc@plt>:
  400d80:	ff 25 32 33 20 00    	jmpq   *0x203332(%rip)        # 6040b8 <_IO_getc@GLIBC_2.2.5>
  400d86:	68 14 00 00 00       	pushq  $0x14
  400d8b:	e9 a0 fe ff ff       	jmpq   400c30 <.plt>

0000000000400d90 <__isoc99_sscanf@plt>:
  400d90:	ff 25 2a 33 20 00    	jmpq   *0x20332a(%rip)        # 6040c0 <__isoc99_sscanf@GLIBC_2.7>
  400d96:	68 15 00 00 00       	pushq  $0x15
  400d9b:	e9 90 fe ff ff       	jmpq   400c30 <.plt>

0000000000400da0 <munmap@plt>:
  400da0:	ff 25 22 33 20 00    	jmpq   *0x203322(%rip)        # 6040c8 <munmap@GLIBC_2.2.5>
  400da6:	68 16 00 00 00       	pushq  $0x16
  400dab:	e9 80 fe ff ff       	jmpq   400c30 <.plt>

0000000000400db0 <__printf_chk@plt>:
  400db0:	ff 25 1a 33 20 00    	jmpq   *0x20331a(%rip)        # 6040d0 <__printf_chk@GLIBC_2.3.4>
  400db6:	68 17 00 00 00       	pushq  $0x17
  400dbb:	e9 70 fe ff ff       	jmpq   400c30 <.plt>

0000000000400dc0 <fopen@plt>:
  400dc0:	ff 25 12 33 20 00    	jmpq   *0x203312(%rip)        # 6040d8 <fopen@GLIBC_2.2.5>
  400dc6:	68 18 00 00 00       	pushq  $0x18
  400dcb:	e9 60 fe ff ff       	jmpq   400c30 <.plt>

0000000000400dd0 <getopt@plt>:
  400dd0:	ff 25 0a 33 20 00    	jmpq   *0x20330a(%rip)        # 6040e0 <getopt@GLIBC_2.2.5>
  400dd6:	68 19 00 00 00       	pushq  $0x19
  400ddb:	e9 50 fe ff ff       	jmpq   400c30 <.plt>

0000000000400de0 <strtoul@plt>:
  400de0:	ff 25 02 33 20 00    	jmpq   *0x203302(%rip)        # 6040e8 <strtoul@GLIBC_2.2.5>
  400de6:	68 1a 00 00 00       	pushq  $0x1a
  400deb:	e9 40 fe ff ff       	jmpq   400c30 <.plt>

0000000000400df0 <gethostname@plt>:
  400df0:	ff 25 fa 32 20 00    	jmpq   *0x2032fa(%rip)        # 6040f0 <gethostname@GLIBC_2.2.5>
  400df6:	68 1b 00 00 00       	pushq  $0x1b
  400dfb:	e9 30 fe ff ff       	jmpq   400c30 <.plt>

0000000000400e00 <exit@plt>:
  400e00:	ff 25 f2 32 20 00    	jmpq   *0x2032f2(%rip)        # 6040f8 <exit@GLIBC_2.2.5>
  400e06:	68 1c 00 00 00       	pushq  $0x1c
  400e0b:	e9 20 fe ff ff       	jmpq   400c30 <.plt>

0000000000400e10 <connect@plt>:
  400e10:	ff 25 ea 32 20 00    	jmpq   *0x2032ea(%rip)        # 604100 <connect@GLIBC_2.2.5>
  400e16:	68 1d 00 00 00       	pushq  $0x1d
  400e1b:	e9 10 fe ff ff       	jmpq   400c30 <.plt>

0000000000400e20 <__fprintf_chk@plt>:
  400e20:	ff 25 e2 32 20 00    	jmpq   *0x2032e2(%rip)        # 604108 <__fprintf_chk@GLIBC_2.3.4>
  400e26:	68 1e 00 00 00       	pushq  $0x1e
  400e2b:	e9 00 fe ff ff       	jmpq   400c30 <.plt>

0000000000400e30 <__sprintf_chk@plt>:
  400e30:	ff 25 da 32 20 00    	jmpq   *0x2032da(%rip)        # 604110 <__sprintf_chk@GLIBC_2.3.4>
  400e36:	68 1f 00 00 00       	pushq  $0x1f
  400e3b:	e9 f0 fd ff ff       	jmpq   400c30 <.plt>

0000000000400e40 <socket@plt>:
  400e40:	ff 25 d2 32 20 00    	jmpq   *0x2032d2(%rip)        # 604118 <socket@GLIBC_2.2.5>
  400e46:	68 20 00 00 00       	pushq  $0x20
  400e4b:	e9 e0 fd ff ff       	jmpq   400c30 <.plt>

Disassembly of section .plt.got:

0000000000400e50 <__gmon_start__@plt>:
  400e50:	ff 25 a2 31 20 00    	jmpq   *0x2031a2(%rip)        # 603ff8 <__gmon_start__>
  400e56:	66 90                	xchg   %ax,%ax

Disassembly of section .text:

0000000000400e60 <_start>:
  400e60:	31 ed                	xor    %ebp,%ebp
  400e62:	49 89 d1             	mov    %rdx,%r9
  400e65:	5e                   	pop    %rsi
  400e66:	48 89 e2             	mov    %rsp,%rdx
  400e69:	48 83 e4 f0          	and    $0xfffffffffffffff0,%rsp
  400e6d:	50                   	push   %rax
  400e6e:	54                   	push   %rsp
  400e6f:	49 c7 c0 90 2e 40 00 	mov    $0x402e90,%r8
  400e76:	48 c7 c1 20 2e 40 00 	mov    $0x402e20,%rcx
  400e7d:	48 c7 c7 0b 11 40 00 	mov    $0x40110b,%rdi
  400e84:	e8 77 fe ff ff       	callq  400d00 <__libc_start_main@plt>
  400e89:	f4                   	hlt    
  400e8a:	66 0f 1f 44 00 00    	nopw   0x0(%rax,%rax,1)

0000000000400e90 <deregister_tm_clones>:
  400e90:	b8 97 44 60 00       	mov    $0x604497,%eax
  400e95:	55                   	push   %rbp
  400e96:	48 2d 90 44 60 00    	sub    $0x604490,%rax
  400e9c:	48 83 f8 0e          	cmp    $0xe,%rax
  400ea0:	48 89 e5             	mov    %rsp,%rbp
  400ea3:	76 1b                	jbe    400ec0 <deregister_tm_clones+0x30>
  400ea5:	b8 00 00 00 00       	mov    $0x0,%eax
  400eaa:	48 85 c0             	test   %rax,%rax
  400ead:	74 11                	je     400ec0 <deregister_tm_clones+0x30>
  400eaf:	5d                   	pop    %rbp
  400eb0:	bf 90 44 60 00       	mov    $0x604490,%edi
  400eb5:	ff e0                	jmpq   *%rax
  400eb7:	66 0f 1f 84 00 00 00 	nopw   0x0(%rax,%rax,1)
  400ebe:	00 00 
  400ec0:	5d                   	pop    %rbp
  400ec1:	c3                   	retq   
  400ec2:	0f 1f 40 00          	nopl   0x0(%rax)
  400ec6:	66 2e 0f 1f 84 00 00 	nopw   %cs:0x0(%rax,%rax,1)
  400ecd:	00 00 00 

0000000000400ed0 <register_tm_clones>:
  400ed0:	be 90 44 60 00       	mov    $0x604490,%esi
  400ed5:	55                   	push   %rbp
  400ed6:	48 81 ee 90 44 60 00 	sub    $0x604490,%rsi
  400edd:	48 c1 fe 03          	sar    $0x3,%rsi
  400ee1:	48 89 e5             	mov    %rsp,%rbp
  400ee4:	48 89 f0             	mov    %rsi,%rax
  400ee7:	48 c1 e8 3f          	shr    $0x3f,%rax
  400eeb:	48 01 c6             	add    %rax,%rsi
  400eee:	48 d1 fe             	sar    %rsi
  400ef1:	74 15                	je     400f08 <register_tm_clones+0x38>
  400ef3:	b8 00 00 00 00       	mov    $0x0,%eax
  400ef8:	48 85 c0             	test   %rax,%rax
  400efb:	74 0b                	je     400f08 <register_tm_clones+0x38>
  400efd:	5d                   	pop    %rbp
  400efe:	bf 90 44 60 00       	mov    $0x604490,%edi
  400f03:	ff e0                	jmpq   *%rax
  400f05:	0f 1f 00             	nopl   (%rax)
  400f08:	5d                   	pop    %rbp
  400f09:	c3                   	retq   
  400f0a:	66 0f 1f 44 00 00    	nopw   0x0(%rax,%rax,1)

0000000000400f10 <__do_global_dtors_aux>:
  400f10:	80 3d b1 35 20 00 00 	cmpb   $0x0,0x2035b1(%rip)        # 6044c8 <completed.7594>
  400f17:	75 11                	jne    400f2a <__do_global_dtors_aux+0x1a>
  400f19:	55                   	push   %rbp
  400f1a:	48 89 e5             	mov    %rsp,%rbp
  400f1d:	e8 6e ff ff ff       	callq  400e90 <deregister_tm_clones>
  400f22:	5d                   	pop    %rbp
  400f23:	c6 05 9e 35 20 00 01 	movb   $0x1,0x20359e(%rip)        # 6044c8 <completed.7594>
  400f2a:	f3 c3                	repz retq 
  400f2c:	0f 1f 40 00          	nopl   0x0(%rax)

0000000000400f30 <frame_dummy>:
  400f30:	bf 20 3e 60 00       	mov    $0x603e20,%edi
  400f35:	48 83 3f 00          	cmpq   $0x0,(%rdi)
  400f39:	75 05                	jne    400f40 <frame_dummy+0x10>
  400f3b:	eb 93                	jmp    400ed0 <register_tm_clones>
  400f3d:	0f 1f 00             	nopl   (%rax)
  400f40:	b8 00 00 00 00       	mov    $0x0,%eax
  400f45:	48 85 c0             	test   %rax,%rax
  400f48:	74 f1                	je     400f3b <frame_dummy+0xb>
  400f4a:	55                   	push   %rbp
  400f4b:	48 89 e5             	mov    %rsp,%rbp
  400f4e:	ff d0                	callq  *%rax
  400f50:	5d                   	pop    %rbp
  400f51:	e9 7a ff ff ff       	jmpq   400ed0 <register_tm_clones>

0000000000400f56 <usage>:
  400f56:	48 83 ec 08          	sub    $0x8,%rsp
  400f5a:	48 89 fa             	mov    %rdi,%rdx
  400f5d:	83 3d a4 35 20 00 00 	cmpl   $0x0,0x2035a4(%rip)        # 604508 <is_checker>
  400f64:	74 3e                	je     400fa4 <usage+0x4e>
  400f66:	be a8 2e 40 00       	mov    $0x402ea8,%esi
  400f6b:	bf 01 00 00 00       	mov    $0x1,%edi
  400f70:	b8 00 00 00 00       	mov    $0x0,%eax
  400f75:	e8 36 fe ff ff       	callq  400db0 <__printf_chk@plt>
  400f7a:	bf e0 2e 40 00       	mov    $0x402ee0,%edi
  400f7f:	e8 fc fc ff ff       	callq  400c80 <puts@plt>
  400f84:	bf 18 30 40 00       	mov    $0x403018,%edi
  400f89:	e8 f2 fc ff ff       	callq  400c80 <puts@plt>
  400f8e:	bf 08 2f 40 00       	mov    $0x402f08,%edi
  400f93:	e8 e8 fc ff ff       	callq  400c80 <puts@plt>
  400f98:	bf 32 30 40 00       	mov    $0x403032,%edi
  400f9d:	e8 de fc ff ff       	callq  400c80 <puts@plt>
  400fa2:	eb 32                	jmp    400fd6 <usage+0x80>
  400fa4:	be 4e 30 40 00       	mov    $0x40304e,%esi
  400fa9:	bf 01 00 00 00       	mov    $0x1,%edi
  400fae:	b8 00 00 00 00       	mov    $0x0,%eax
  400fb3:	e8 f8 fd ff ff       	callq  400db0 <__printf_chk@plt>
  400fb8:	bf 30 2f 40 00       	mov    $0x402f30,%edi
  400fbd:	e8 be fc ff ff       	callq  400c80 <puts@plt>
  400fc2:	bf 58 2f 40 00       	mov    $0x402f58,%edi
  400fc7:	e8 b4 fc ff ff       	callq  400c80 <puts@plt>
  400fcc:	bf 6c 30 40 00       	mov    $0x40306c,%edi
  400fd1:	e8 aa fc ff ff       	callq  400c80 <puts@plt>
  400fd6:	bf 00 00 00 00       	mov    $0x0,%edi
  400fdb:	e8 20 fe ff ff       	callq  400e00 <exit@plt>

0000000000400fe0 <initialize_target>:
  400fe0:	55                   	push   %rbp
  400fe1:	53                   	push   %rbx
  400fe2:	48 81 ec 18 21 00 00 	sub    $0x2118,%rsp
  400fe9:	89 f5                	mov    %esi,%ebp
  400feb:	64 48 8b 04 25 28 00 	mov    %fs:0x28,%rax
  400ff2:	00 00 
  400ff4:	48 89 84 24 08 21 00 	mov    %rax,0x2108(%rsp)
  400ffb:	00 
  400ffc:	31 c0                	xor    %eax,%eax
  400ffe:	89 3d f4 34 20 00    	mov    %edi,0x2034f4(%rip)        # 6044f8 <check_level>
  401004:	8b 3d 3e 31 20 00    	mov    0x20313e(%rip),%edi        # 604148 <target_id>
  40100a:	e8 f0 1d 00 00       	callq  402dff <gencookie>
  40100f:	89 05 ef 34 20 00    	mov    %eax,0x2034ef(%rip)        # 604504 <cookie>
  401015:	89 c7                	mov    %eax,%edi
  401017:	e8 e3 1d 00 00       	callq  402dff <gencookie>
  40101c:	89 05 de 34 20 00    	mov    %eax,0x2034de(%rip)        # 604500 <authkey>
  401022:	8b 05 20 31 20 00    	mov    0x203120(%rip),%eax        # 604148 <target_id>
  401028:	8d 78 01             	lea    0x1(%rax),%edi
  40102b:	e8 20 fc ff ff       	callq  400c50 <srandom@plt>
  401030:	e8 3b fd ff ff       	callq  400d70 <random@plt>
  401035:	89 c7                	mov    %eax,%edi
  401037:	e8 a9 02 00 00       	callq  4012e5 <scramble>
  40103c:	89 c3                	mov    %eax,%ebx
  40103e:	85 ed                	test   %ebp,%ebp
  401040:	74 18                	je     40105a <initialize_target+0x7a>
  401042:	bf 00 00 00 00       	mov    $0x0,%edi
  401047:	e8 14 fd ff ff       	callq  400d60 <time@plt>
  40104c:	89 c7                	mov    %eax,%edi
  40104e:	e8 fd fb ff ff       	callq  400c50 <srandom@plt>
  401053:	e8 18 fd ff ff       	callq  400d70 <random@plt>
  401058:	eb 05                	jmp    40105f <initialize_target+0x7f>
  40105a:	b8 00 00 00 00       	mov    $0x0,%eax
  40105f:	01 c3                	add    %eax,%ebx
  401061:	0f b7 db             	movzwl %bx,%ebx
  401064:	8d 04 dd 00 01 00 00 	lea    0x100(,%rbx,8),%eax
  40106b:	89 c0                	mov    %eax,%eax
  40106d:	48 89 05 0c 34 20 00 	mov    %rax,0x20340c(%rip)        # 604480 <buf_offset>
  401074:	c6 05 ad 40 20 00 63 	movb   $0x63,0x2040ad(%rip)        # 605128 <target_prefix>
  40107b:	83 3d 06 34 20 00 00 	cmpl   $0x0,0x203406(%rip)        # 604488 <notify>
  401082:	74 65                	je     4010e9 <initialize_target+0x109>
  401084:	83 3d 7d 34 20 00 00 	cmpl   $0x0,0x20347d(%rip)        # 604508 <is_checker>
  40108b:	75 5c                	jne    4010e9 <initialize_target+0x109>
  40108d:	be 00 01 00 00       	mov    $0x100,%esi
  401092:	48 89 e7             	mov    %rsp,%rdi
  401095:	e8 56 fd ff ff       	callq  400df0 <gethostname@plt>
  40109a:	85 c0                	test   %eax,%eax
  40109c:	74 14                	je     4010b2 <initialize_target+0xd2>
  40109e:	bf 88 2f 40 00       	mov    $0x402f88,%edi
  4010a3:	e8 d8 fb ff ff       	callq  400c80 <puts@plt>
  4010a8:	bf 08 00 00 00       	mov    $0x8,%edi
  4010ad:	e8 4e fd ff ff       	callq  400e00 <exit@plt>
  4010b2:	48 8d bc 24 00 01 00 	lea    0x100(%rsp),%rdi
  4010b9:	00 
  4010ba:	e8 aa 1a 00 00       	callq  402b69 <init_driver>
  4010bf:	85 c0                	test   %eax,%eax
  4010c1:	79 26                	jns    4010e9 <initialize_target+0x109>
  4010c3:	48 8d 94 24 00 01 00 	lea    0x100(%rsp),%rdx
  4010ca:	00 
  4010cb:	be c0 2f 40 00       	mov    $0x402fc0,%esi
  4010d0:	bf 01 00 00 00       	mov    $0x1,%edi
  4010d5:	b8 00 00 00 00       	mov    $0x0,%eax
  4010da:	e8 d1 fc ff ff       	callq  400db0 <__printf_chk@plt>
  4010df:	bf 08 00 00 00       	mov    $0x8,%edi
  4010e4:	e8 17 fd ff ff       	callq  400e00 <exit@plt>
  4010e9:	48 8b 84 24 08 21 00 	mov    0x2108(%rsp),%rax
  4010f0:	00 
  4010f1:	64 48 33 04 25 28 00 	xor    %fs:0x28,%rax
  4010f8:	00 00 
  4010fa:	74 05                	je     401101 <initialize_target+0x121>
  4010fc:	e8 9f fb ff ff       	callq  400ca0 <__stack_chk_fail@plt>
  401101:	48 81 c4 18 21 00 00 	add    $0x2118,%rsp
  401108:	5b                   	pop    %rbx
  401109:	5d                   	pop    %rbp
  40110a:	c3                   	retq   

000000000040110b <main>:
  40110b:	41 56                	push   %r14
  40110d:	41 55                	push   %r13
  40110f:	41 54                	push   %r12
  401111:	55                   	push   %rbp
  401112:	53                   	push   %rbx
  401113:	41 89 fc             	mov    %edi,%r12d
  401116:	48 89 f3             	mov    %rsi,%rbx
  401119:	be a4 1e 40 00       	mov    $0x401ea4,%esi
  40111e:	bf 0b 00 00 00       	mov    $0xb,%edi
  401123:	e8 e8 fb ff ff       	callq  400d10 <signal@plt>
  401128:	be 56 1e 40 00       	mov    $0x401e56,%esi
  40112d:	bf 07 00 00 00       	mov    $0x7,%edi
  401132:	e8 d9 fb ff ff       	callq  400d10 <signal@plt>
  401137:	be f2 1e 40 00       	mov    $0x401ef2,%esi
  40113c:	bf 04 00 00 00       	mov    $0x4,%edi
  401141:	e8 ca fb ff ff       	callq  400d10 <signal@plt>
  401146:	83 3d bb 33 20 00 00 	cmpl   $0x0,0x2033bb(%rip)        # 604508 <is_checker>
  40114d:	74 20                	je     40116f <main+0x64>
  40114f:	be 40 1f 40 00       	mov    $0x401f40,%esi
  401154:	bf 0e 00 00 00       	mov    $0xe,%edi
  401159:	e8 b2 fb ff ff       	callq  400d10 <signal@plt>
  40115e:	bf 05 00 00 00       	mov    $0x5,%edi
  401163:	e8 68 fb ff ff       	callq  400cd0 <alarm@plt>
  401168:	bd 8a 30 40 00       	mov    $0x40308a,%ebp
  40116d:	eb 05                	jmp    401174 <main+0x69>
  40116f:	bd 85 30 40 00       	mov    $0x403085,%ebp
  401174:	48 8b 05 25 33 20 00 	mov    0x203325(%rip),%rax        # 6044a0 <stdin@@GLIBC_2.2.5>
  40117b:	48 89 05 6e 33 20 00 	mov    %rax,0x20336e(%rip)        # 6044f0 <infile>
  401182:	41 bd 00 00 00 00    	mov    $0x0,%r13d
  401188:	41 be 00 00 00 00    	mov    $0x0,%r14d
  40118e:	e9 c6 00 00 00       	jmpq   401259 <main+0x14e>
  401193:	83 e8 61             	sub    $0x61,%eax
  401196:	3c 10                	cmp    $0x10,%al
  401198:	0f 87 9c 00 00 00    	ja     40123a <main+0x12f>
  40119e:	0f b6 c0             	movzbl %al,%eax
  4011a1:	ff 24 c5 d0 30 40 00 	jmpq   *0x4030d0(,%rax,8)
  4011a8:	48 8b 3b             	mov    (%rbx),%rdi
  4011ab:	e8 a6 fd ff ff       	callq  400f56 <usage>
  4011b0:	be 55 33 40 00       	mov    $0x403355,%esi
  4011b5:	48 8b 3d ec 32 20 00 	mov    0x2032ec(%rip),%rdi        # 6044a8 <optarg@@GLIBC_2.2.5>
  4011bc:	e8 ff fb ff ff       	callq  400dc0 <fopen@plt>
  4011c1:	48 89 05 28 33 20 00 	mov    %rax,0x203328(%rip)        # 6044f0 <infile>
  4011c8:	48 85 c0             	test   %rax,%rax
  4011cb:	0f 85 88 00 00 00    	jne    401259 <main+0x14e>
  4011d1:	48 8b 0d d0 32 20 00 	mov    0x2032d0(%rip),%rcx        # 6044a8 <optarg@@GLIBC_2.2.5>
  4011d8:	ba 92 30 40 00       	mov    $0x403092,%edx
  4011dd:	be 01 00 00 00       	mov    $0x1,%esi
  4011e2:	48 8b 3d d7 32 20 00 	mov    0x2032d7(%rip),%rdi        # 6044c0 <stderr@@GLIBC_2.2.5>
  4011e9:	e8 32 fc ff ff       	callq  400e20 <__fprintf_chk@plt>
  4011ee:	b8 01 00 00 00       	mov    $0x1,%eax
  4011f3:	e9 e4 00 00 00       	jmpq   4012dc <main+0x1d1>
  4011f8:	ba 10 00 00 00       	mov    $0x10,%edx
  4011fd:	be 00 00 00 00       	mov    $0x0,%esi
  401202:	48 8b 3d 9f 32 20 00 	mov    0x20329f(%rip),%rdi        # 6044a8 <optarg@@GLIBC_2.2.5>
  401209:	e8 d2 fb ff ff       	callq  400de0 <strtoul@plt>
  40120e:	41 89 c6             	mov    %eax,%r14d
  401211:	eb 46                	jmp    401259 <main+0x14e>
  401213:	ba 0a 00 00 00       	mov    $0xa,%edx
  401218:	be 00 00 00 00       	mov    $0x0,%esi
  40121d:	48 8b 3d 84 32 20 00 	mov    0x203284(%rip),%rdi        # 6044a8 <optarg@@GLIBC_2.2.5>
  401224:	e8 17 fb ff ff       	callq  400d40 <strtol@plt>
  401229:	41 89 c5             	mov    %eax,%r13d
  40122c:	eb 2b                	jmp    401259 <main+0x14e>
  40122e:	c7 05 50 32 20 00 00 	movl   $0x0,0x203250(%rip)        # 604488 <notify>
  401235:	00 00 00 
  401238:	eb 1f                	jmp    401259 <main+0x14e>
  40123a:	0f be d2             	movsbl %dl,%edx
  40123d:	be af 30 40 00       	mov    $0x4030af,%esi
  401242:	bf 01 00 00 00       	mov    $0x1,%edi
  401247:	b8 00 00 00 00       	mov    $0x0,%eax
  40124c:	e8 5f fb ff ff       	callq  400db0 <__printf_chk@plt>
  401251:	48 8b 3b             	mov    (%rbx),%rdi
  401254:	e8 fd fc ff ff       	callq  400f56 <usage>
  401259:	48 89 ea             	mov    %rbp,%rdx
  40125c:	48 89 de             	mov    %rbx,%rsi
  40125f:	44 89 e7             	mov    %r12d,%edi
  401262:	e8 69 fb ff ff       	callq  400dd0 <getopt@plt>
  401267:	89 c2                	mov    %eax,%edx
  401269:	3c ff                	cmp    $0xff,%al
  40126b:	0f 85 22 ff ff ff    	jne    401193 <main+0x88>
  401271:	be 00 00 00 00       	mov    $0x0,%esi
  401276:	44 89 ef             	mov    %r13d,%edi
  401279:	e8 62 fd ff ff       	callq  400fe0 <initialize_target>
  40127e:	83 3d 83 32 20 00 00 	cmpl   $0x0,0x203283(%rip)        # 604508 <is_checker>
  401285:	74 2a                	je     4012b1 <main+0x1a6>
  401287:	44 3b 35 72 32 20 00 	cmp    0x203272(%rip),%r14d        # 604500 <authkey>
  40128e:	74 21                	je     4012b1 <main+0x1a6>
  401290:	44 89 f2             	mov    %r14d,%edx
  401293:	be e8 2f 40 00       	mov    $0x402fe8,%esi
  401298:	bf 01 00 00 00       	mov    $0x1,%edi
  40129d:	b8 00 00 00 00       	mov    $0x0,%eax
  4012a2:	e8 09 fb ff ff       	callq  400db0 <__printf_chk@plt>
  4012a7:	b8 00 00 00 00       	mov    $0x0,%eax
  4012ac:	e8 41 08 00 00       	callq  401af2 <check_fail>
  4012b1:	8b 15 4d 32 20 00    	mov    0x20324d(%rip),%edx        # 604504 <cookie>
  4012b7:	be c2 30 40 00       	mov    $0x4030c2,%esi
  4012bc:	bf 01 00 00 00       	mov    $0x1,%edi
  4012c1:	b8 00 00 00 00       	mov    $0x0,%eax
  4012c6:	e8 e5 fa ff ff       	callq  400db0 <__printf_chk@plt>
  4012cb:	48 8b 3d ae 31 20 00 	mov    0x2031ae(%rip),%rdi        # 604480 <buf_offset>
  4012d2:	e8 69 0d 00 00       	callq  402040 <stable_launch>
  4012d7:	b8 00 00 00 00       	mov    $0x0,%eax
  4012dc:	5b                   	pop    %rbx
  4012dd:	5d                   	pop    %rbp
  4012de:	41 5c                	pop    %r12
  4012e0:	41 5d                	pop    %r13
  4012e2:	41 5e                	pop    %r14
  4012e4:	c3                   	retq   

00000000004012e5 <scramble>:
  4012e5:	48 83 ec 38          	sub    $0x38,%rsp
  4012e9:	64 48 8b 04 25 28 00 	mov    %fs:0x28,%rax
  4012f0:	00 00 
  4012f2:	48 89 44 24 28       	mov    %rax,0x28(%rsp)
  4012f7:	31 c0                	xor    %eax,%eax
  4012f9:	eb 10                	jmp    40130b <scramble+0x26>
  4012fb:	69 d0 fb d9 00 00    	imul   $0xd9fb,%eax,%edx
  401301:	01 fa                	add    %edi,%edx
  401303:	89 c1                	mov    %eax,%ecx
  401305:	89 14 8c             	mov    %edx,(%rsp,%rcx,4)
  401308:	83 c0 01             	add    $0x1,%eax
  40130b:	83 f8 09             	cmp    $0x9,%eax
  40130e:	76 eb                	jbe    4012fb <scramble+0x16>
  401310:	8b 44 24 08          	mov    0x8(%rsp),%eax
  401314:	69 c0 c7 05 00 00    	imul   $0x5c7,%eax,%eax
  40131a:	89 44 24 08          	mov    %eax,0x8(%rsp)
  40131e:	8b 44 24 04          	mov    0x4(%rsp),%eax
  401322:	69 c0 dc 83 00 00    	imul   $0x83dc,%eax,%eax
  401328:	89 44 24 04          	mov    %eax,0x4(%rsp)
  40132c:	8b 44 24 0c          	mov    0xc(%rsp),%eax
  401330:	69 c0 45 49 00 00    	imul   $0x4945,%eax,%eax
  401336:	89 44 24 0c          	mov    %eax,0xc(%rsp)
  40133a:	8b 04 24             	mov    (%rsp),%eax
  40133d:	69 c0 c4 15 00 00    	imul   $0x15c4,%eax,%eax
  401343:	89 04 24             	mov    %eax,(%rsp)
  401346:	8b 44 24 1c          	mov    0x1c(%rsp),%eax
  40134a:	69 c0 41 e6 00 00    	imul   $0xe641,%eax,%eax
  401350:	89 44 24 1c          	mov    %eax,0x1c(%rsp)
  401354:	8b 44 24 10          	mov    0x10(%rsp),%eax
  401358:	69 c0 d9 52 00 00    	imul   $0x52d9,%eax,%eax
  40135e:	89 44 24 10          	mov    %eax,0x10(%rsp)
  401362:	8b 44 24 08          	mov    0x8(%rsp),%eax
  401366:	69 c0 a9 65 00 00    	imul   $0x65a9,%eax,%eax
  40136c:	89 44 24 08          	mov    %eax,0x8(%rsp)
  401370:	8b 44 24 1c          	mov    0x1c(%rsp),%eax
  401374:	69 c0 04 25 00 00    	imul   $0x2504,%eax,%eax
  40137a:	89 44 24 1c          	mov    %eax,0x1c(%rsp)
  40137e:	8b 44 24 10          	mov    0x10(%rsp),%eax
  401382:	69 c0 8c 21 00 00    	imul   $0x218c,%eax,%eax
  401388:	89 44 24 10          	mov    %eax,0x10(%rsp)
  40138c:	8b 04 24             	mov    (%rsp),%eax
  40138f:	69 c0 1e 95 00 00    	imul   $0x951e,%eax,%eax
  401395:	89 04 24             	mov    %eax,(%rsp)
  401398:	8b 44 24 0c          	mov    0xc(%rsp),%eax
  40139c:	69 c0 e9 ce 00 00    	imul   $0xcee9,%eax,%eax
  4013a2:	89 44 24 0c          	mov    %eax,0xc(%rsp)
  4013a6:	8b 44 24 24          	mov    0x24(%rsp),%eax
  4013aa:	69 c0 33 52 00 00    	imul   $0x5233,%eax,%eax
  4013b0:	89 44 24 24          	mov    %eax,0x24(%rsp)
  4013b4:	8b 44 24 20          	mov    0x20(%rsp),%eax
  4013b8:	69 c0 13 44 00 00    	imul   $0x4413,%eax,%eax
  4013be:	89 44 24 20          	mov    %eax,0x20(%rsp)
  4013c2:	8b 44 24 0c          	mov    0xc(%rsp),%eax
  4013c6:	69 c0 88 cb 00 00    	imul   $0xcb88,%eax,%eax
  4013cc:	89 44 24 0c          	mov    %eax,0xc(%rsp)
  4013d0:	8b 44 24 08          	mov    0x8(%rsp),%eax
  4013d4:	69 c0 8c f8 00 00    	imul   $0xf88c,%eax,%eax
  4013da:	89 44 24 08          	mov    %eax,0x8(%rsp)
  4013de:	8b 44 24 04          	mov    0x4(%rsp),%eax
  4013e2:	69 c0 b6 36 00 00    	imul   $0x36b6,%eax,%eax
  4013e8:	89 44 24 04          	mov    %eax,0x4(%rsp)
  4013ec:	8b 44 24 08          	mov    0x8(%rsp),%eax
  4013f0:	69 c0 9a ac 00 00    	imul   $0xac9a,%eax,%eax
  4013f6:	89 44 24 08          	mov    %eax,0x8(%rsp)
  4013fa:	8b 44 24 20          	mov    0x20(%rsp),%eax
  4013fe:	69 c0 39 57 00 00    	imul   $0x5739,%eax,%eax
  401404:	89 44 24 20          	mov    %eax,0x20(%rsp)
  401408:	8b 44 24 04          	mov    0x4(%rsp),%eax
  40140c:	69 c0 34 35 00 00    	imul   $0x3534,%eax,%eax
  401412:	89 44 24 04          	mov    %eax,0x4(%rsp)
  401416:	8b 44 24 0c          	mov    0xc(%rsp),%eax
  40141a:	69 c0 64 a5 00 00    	imul   $0xa564,%eax,%eax
  401420:	89 44 24 0c          	mov    %eax,0xc(%rsp)
  401424:	8b 44 24 04          	mov    0x4(%rsp),%eax
  401428:	69 c0 1e 8e 00 00    	imul   $0x8e1e,%eax,%eax
  40142e:	89 44 24 04          	mov    %eax,0x4(%rsp)
  401432:	8b 44 24 18          	mov    0x18(%rsp),%eax
  401436:	69 c0 fa f8 00 00    	imul   $0xf8fa,%eax,%eax
  40143c:	89 44 24 18          	mov    %eax,0x18(%rsp)
  401440:	8b 04 24             	mov    (%rsp),%eax
  401443:	69 c0 14 8f 00 00    	imul   $0x8f14,%eax,%eax
  401449:	89 04 24             	mov    %eax,(%rsp)
  40144c:	8b 44 24 20          	mov    0x20(%rsp),%eax
  401450:	69 c0 5d 10 00 00    	imul   $0x105d,%eax,%eax
  401456:	89 44 24 20          	mov    %eax,0x20(%rsp)
  40145a:	8b 44 24 0c          	mov    0xc(%rsp),%eax
  40145e:	69 c0 6e 81 00 00    	imul   $0x816e,%eax,%eax
  401464:	89 44 24 0c          	mov    %eax,0xc(%rsp)
  401468:	8b 44 24 20          	mov    0x20(%rsp),%eax
  40146c:	69 c0 32 1b 00 00    	imul   $0x1b32,%eax,%eax
  401472:	89 44 24 20          	mov    %eax,0x20(%rsp)
  401476:	8b 44 24 08          	mov    0x8(%rsp),%eax
  40147a:	69 c0 7e e9 00 00    	imul   $0xe97e,%eax,%eax
  401480:	89 44 24 08          	mov    %eax,0x8(%rsp)
  401484:	8b 44 24 1c          	mov    0x1c(%rsp),%eax
  401488:	69 c0 c7 79 00 00    	imul   $0x79c7,%eax,%eax
  40148e:	89 44 24 1c          	mov    %eax,0x1c(%rsp)
  401492:	8b 44 24 0c          	mov    0xc(%rsp),%eax
  401496:	69 c0 2c 3e 00 00    	imul   $0x3e2c,%eax,%eax
  40149c:	89 44 24 0c          	mov    %eax,0xc(%rsp)
  4014a0:	8b 44 24 10          	mov    0x10(%rsp),%eax
  4014a4:	69 c0 4c 8a 00 00    	imul   $0x8a4c,%eax,%eax
  4014aa:	89 44 24 10          	mov    %eax,0x10(%rsp)
  4014ae:	8b 44 24 1c          	mov    0x1c(%rsp),%eax
  4014b2:	69 c0 39 e8 00 00    	imul   $0xe839,%eax,%eax
  4014b8:	89 44 24 1c          	mov    %eax,0x1c(%rsp)
  4014bc:	8b 44 24 10          	mov    0x10(%rsp),%eax
  4014c0:	69 c0 0c 35 00 00    	imul   $0x350c,%eax,%eax
  4014c6:	89 44 24 10          	mov    %eax,0x10(%rsp)
  4014ca:	8b 44 24 04          	mov    0x4(%rsp),%eax
  4014ce:	69 c0 95 7b 00 00    	imul   $0x7b95,%eax,%eax
  4014d4:	89 44 24 04          	mov    %eax,0x4(%rsp)
  4014d8:	8b 44 24 1c          	mov    0x1c(%rsp),%eax
  4014dc:	69 c0 b4 8a 00 00    	imul   $0x8ab4,%eax,%eax
  4014e2:	89 44 24 1c          	mov    %eax,0x1c(%rsp)
  4014e6:	8b 44 24 10          	mov    0x10(%rsp),%eax
  4014ea:	69 c0 42 f9 00 00    	imul   $0xf942,%eax,%eax
  4014f0:	89 44 24 10          	mov    %eax,0x10(%rsp)
  4014f4:	8b 44 24 14          	mov    0x14(%rsp),%eax
  4014f8:	69 c0 3f cc 00 00    	imul   $0xcc3f,%eax,%eax
  4014fe:	89 44 24 14          	mov    %eax,0x14(%rsp)
  401502:	8b 44 24 04          	mov    0x4(%rsp),%eax
  401506:	69 c0 56 28 00 00    	imul   $0x2856,%eax,%eax
  40150c:	89 44 24 04          	mov    %eax,0x4(%rsp)
  401510:	8b 44 24 10          	mov    0x10(%rsp),%eax
  401514:	69 c0 29 7b 00 00    	imul   $0x7b29,%eax,%eax
  40151a:	89 44 24 10          	mov    %eax,0x10(%rsp)
  40151e:	8b 04 24             	mov    (%rsp),%eax
  401521:	69 c0 37 e3 00 00    	imul   $0xe337,%eax,%eax
  401527:	89 04 24             	mov    %eax,(%rsp)
  40152a:	8b 04 24             	mov    (%rsp),%eax
  40152d:	69 c0 0a 68 00 00    	imul   $0x680a,%eax,%eax
  401533:	89 04 24             	mov    %eax,(%rsp)
  401536:	8b 44 24 14          	mov    0x14(%rsp),%eax
  40153a:	69 c0 01 31 00 00    	imul   $0x3101,%eax,%eax
  401540:	89 44 24 14          	mov    %eax,0x14(%rsp)
  401544:	8b 44 24 04          	mov    0x4(%rsp),%eax
  401548:	69 c0 fe b4 00 00    	imul   $0xb4fe,%eax,%eax
  40154e:	89 44 24 04          	mov    %eax,0x4(%rsp)
  401552:	8b 44 24 24          	mov    0x24(%rsp),%eax
  401556:	69 c0 a3 f0 00 00    	imul   $0xf0a3,%eax,%eax
  40155c:	89 44 24 24          	mov    %eax,0x24(%rsp)
  401560:	8b 44 24 04          	mov    0x4(%rsp),%eax
  401564:	69 c0 10 48 00 00    	imul   $0x4810,%eax,%eax
  40156a:	89 44 24 04          	mov    %eax,0x4(%rsp)
  40156e:	8b 44 24 0c          	mov    0xc(%rsp),%eax
  401572:	69 c0 14 74 00 00    	imul   $0x7414,%eax,%eax
  401578:	89 44 24 0c          	mov    %eax,0xc(%rsp)
  40157c:	8b 44 24 24          	mov    0x24(%rsp),%eax
  401580:	69 c0 87 65 00 00    	imul   $0x6587,%eax,%eax
  401586:	89 44 24 24          	mov    %eax,0x24(%rsp)
  40158a:	8b 44 24 0c          	mov    0xc(%rsp),%eax
  40158e:	69 c0 60 93 00 00    	imul   $0x9360,%eax,%eax
  401594:	89 44 24 0c          	mov    %eax,0xc(%rsp)
  401598:	8b 44 24 04          	mov    0x4(%rsp),%eax
  40159c:	69 c0 21 f1 00 00    	imul   $0xf121,%eax,%eax
  4015a2:	89 44 24 04          	mov    %eax,0x4(%rsp)
  4015a6:	8b 44 24 1c          	mov    0x1c(%rsp),%eax
  4015aa:	69 c0 d8 26 00 00    	imul   $0x26d8,%eax,%eax
  4015b0:	89 44 24 1c          	mov    %eax,0x1c(%rsp)
  4015b4:	8b 44 24 04          	mov    0x4(%rsp),%eax
  4015b8:	69 c0 bf bf 00 00    	imul   $0xbfbf,%eax,%eax
  4015be:	89 44 24 04          	mov    %eax,0x4(%rsp)
  4015c2:	8b 44 24 10          	mov    0x10(%rsp),%eax
  4015c6:	69 c0 ee ab 00 00    	imul   $0xabee,%eax,%eax
  4015cc:	89 44 24 10          	mov    %eax,0x10(%rsp)
  4015d0:	8b 44 24 08          	mov    0x8(%rsp),%eax
  4015d4:	69 c0 7c a7 00 00    	imul   $0xa77c,%eax,%eax
  4015da:	89 44 24 08          	mov    %eax,0x8(%rsp)
  4015de:	8b 44 24 24          	mov    0x24(%rsp),%eax
  4015e2:	69 c0 37 51 00 00    	imul   $0x5137,%eax,%eax
  4015e8:	89 44 24 24          	mov    %eax,0x24(%rsp)
  4015ec:	8b 04 24             	mov    (%rsp),%eax
  4015ef:	69 c0 ae 8b 00 00    	imul   $0x8bae,%eax,%eax
  4015f5:	89 04 24             	mov    %eax,(%rsp)
  4015f8:	8b 04 24             	mov    (%rsp),%eax
  4015fb:	69 c0 2b ae 00 00    	imul   $0xae2b,%eax,%eax
  401601:	89 04 24             	mov    %eax,(%rsp)
  401604:	8b 44 24 10          	mov    0x10(%rsp),%eax
  401608:	69 c0 14 99 00 00    	imul   $0x9914,%eax,%eax
  40160e:	89 44 24 10          	mov    %eax,0x10(%rsp)
  401612:	8b 44 24 08          	mov    0x8(%rsp),%eax
  401616:	69 c0 f5 76 00 00    	imul   $0x76f5,%eax,%eax
  40161c:	89 44 24 08          	mov    %eax,0x8(%rsp)
  401620:	8b 44 24 10          	mov    0x10(%rsp),%eax
  401624:	69 c0 ab f9 00 00    	imul   $0xf9ab,%eax,%eax
  40162a:	89 44 24 10          	mov    %eax,0x10(%rsp)
  40162e:	8b 44 24 1c          	mov    0x1c(%rsp),%eax
  401632:	69 c0 d7 7c 00 00    	imul   $0x7cd7,%eax,%eax
  401638:	89 44 24 1c          	mov    %eax,0x1c(%rsp)
  40163c:	8b 44 24 0c          	mov    0xc(%rsp),%eax
  401640:	69 c0 67 96 00 00    	imul   $0x9667,%eax,%eax
  401646:	89 44 24 0c          	mov    %eax,0xc(%rsp)
  40164a:	8b 44 24 04          	mov    0x4(%rsp),%eax
  40164e:	69 c0 18 14 00 00    	imul   $0x1418,%eax,%eax
  401654:	89 44 24 04          	mov    %eax,0x4(%rsp)
  401658:	8b 44 24 08          	mov    0x8(%rsp),%eax
  40165c:	69 c0 39 4d 00 00    	imul   $0x4d39,%eax,%eax
  401662:	89 44 24 08          	mov    %eax,0x8(%rsp)
  401666:	8b 44 24 20          	mov    0x20(%rsp),%eax
  40166a:	69 c0 82 96 00 00    	imul   $0x9682,%eax,%eax
  401670:	89 44 24 20          	mov    %eax,0x20(%rsp)
  401674:	8b 44 24 04          	mov    0x4(%rsp),%eax
  401678:	69 c0 6e b6 00 00    	imul   $0xb66e,%eax,%eax
  40167e:	89 44 24 04          	mov    %eax,0x4(%rsp)
  401682:	8b 44 24 1c          	mov    0x1c(%rsp),%eax
  401686:	69 c0 30 ba 00 00    	imul   $0xba30,%eax,%eax
  40168c:	89 44 24 1c          	mov    %eax,0x1c(%rsp)
  401690:	8b 44 24 08          	mov    0x8(%rsp),%eax
  401694:	69 c0 76 dd 00 00    	imul   $0xdd76,%eax,%eax
  40169a:	89 44 24 08          	mov    %eax,0x8(%rsp)
  40169e:	8b 04 24             	mov    (%rsp),%eax
  4016a1:	69 c0 2b 02 00 00    	imul   $0x22b,%eax,%eax
  4016a7:	89 04 24             	mov    %eax,(%rsp)
  4016aa:	8b 44 24 20          	mov    0x20(%rsp),%eax
  4016ae:	69 c0 62 3a 00 00    	imul   $0x3a62,%eax,%eax
  4016b4:	89 44 24 20          	mov    %eax,0x20(%rsp)
  4016b8:	8b 04 24             	mov    (%rsp),%eax
  4016bb:	69 c0 97 a7 00 00    	imul   $0xa797,%eax,%eax
  4016c1:	89 04 24             	mov    %eax,(%rsp)
  4016c4:	8b 04 24             	mov    (%rsp),%eax
  4016c7:	69 c0 d0 87 00 00    	imul   $0x87d0,%eax,%eax
  4016cd:	89 04 24             	mov    %eax,(%rsp)
  4016d0:	8b 44 24 04          	mov    0x4(%rsp),%eax
  4016d4:	69 c0 c8 b9 00 00    	imul   $0xb9c8,%eax,%eax
  4016da:	89 44 24 04          	mov    %eax,0x4(%rsp)
  4016de:	8b 44 24 20          	mov    0x20(%rsp),%eax
  4016e2:	69 c0 ee 34 00 00    	imul   $0x34ee,%eax,%eax
  4016e8:	89 44 24 20          	mov    %eax,0x20(%rsp)
  4016ec:	8b 44 24 0c          	mov    0xc(%rsp),%eax
  4016f0:	69 c0 f7 6e 00 00    	imul   $0x6ef7,%eax,%eax
  4016f6:	89 44 24 0c          	mov    %eax,0xc(%rsp)
  4016fa:	8b 44 24 1c          	mov    0x1c(%rsp),%eax
  4016fe:	69 c0 56 98 00 00    	imul   $0x9856,%eax,%eax
  401704:	89 44 24 1c          	mov    %eax,0x1c(%rsp)
  401708:	8b 04 24             	mov    (%rsp),%eax
  40170b:	69 c0 54 70 00 00    	imul   $0x7054,%eax,%eax
  401711:	89 04 24             	mov    %eax,(%rsp)
  401714:	8b 44 24 0c          	mov    0xc(%rsp),%eax
  401718:	69 c0 ba dc 00 00    	imul   $0xdcba,%eax,%eax
  40171e:	89 44 24 0c          	mov    %eax,0xc(%rsp)
  401722:	8b 44 24 14          	mov    0x14(%rsp),%eax
  401726:	69 c0 ad 2a 00 00    	imul   $0x2aad,%eax,%eax
  40172c:	89 44 24 14          	mov    %eax,0x14(%rsp)
  401730:	8b 44 24 24          	mov    0x24(%rsp),%eax
  401734:	69 c0 e5 2b 00 00    	imul   $0x2be5,%eax,%eax
  40173a:	89 44 24 24          	mov    %eax,0x24(%rsp)
  40173e:	8b 44 24 04          	mov    0x4(%rsp),%eax
  401742:	69 c0 4e 68 00 00    	imul   $0x684e,%eax,%eax
  401748:	89 44 24 04          	mov    %eax,0x4(%rsp)
  40174c:	8b 44 24 08          	mov    0x8(%rsp),%eax
  401750:	69 c0 8a 7e 00 00    	imul   $0x7e8a,%eax,%eax
  401756:	89 44 24 08          	mov    %eax,0x8(%rsp)
  40175a:	8b 44 24 10          	mov    0x10(%rsp),%eax
  40175e:	69 c0 80 58 00 00    	imul   $0x5880,%eax,%eax
  401764:	89 44 24 10          	mov    %eax,0x10(%rsp)
  401768:	8b 44 24 24          	mov    0x24(%rsp),%eax
  40176c:	69 c0 9c 88 00 00    	imul   $0x889c,%eax,%eax
  401772:	89 44 24 24          	mov    %eax,0x24(%rsp)
  401776:	8b 44 24 20          	mov    0x20(%rsp),%eax
  40177a:	69 c0 f2 e0 00 00    	imul   $0xe0f2,%eax,%eax
  401780:	89 44 24 20          	mov    %eax,0x20(%rsp)
  401784:	8b 44 24 14          	mov    0x14(%rsp),%eax
  401788:	69 c0 0d ae 00 00    	imul   $0xae0d,%eax,%eax
  40178e:	89 44 24 14          	mov    %eax,0x14(%rsp)
  401792:	8b 44 24 20          	mov    0x20(%rsp),%eax
  401796:	69 c0 0e 89 00 00    	imul   $0x890e,%eax,%eax
  40179c:	89 44 24 20          	mov    %eax,0x20(%rsp)
  4017a0:	8b 44 24 10          	mov    0x10(%rsp),%eax
  4017a4:	69 c0 4b de 00 00    	imul   $0xde4b,%eax,%eax
  4017aa:	89 44 24 10          	mov    %eax,0x10(%rsp)
  4017ae:	8b 44 24 14          	mov    0x14(%rsp),%eax
  4017b2:	69 c0 c3 56 00 00    	imul   $0x56c3,%eax,%eax
  4017b8:	89 44 24 14          	mov    %eax,0x14(%rsp)
  4017bc:	8b 44 24 18          	mov    0x18(%rsp),%eax
  4017c0:	69 c0 94 73 00 00    	imul   $0x7394,%eax,%eax
  4017c6:	89 44 24 18          	mov    %eax,0x18(%rsp)
  4017ca:	8b 44 24 24          	mov    0x24(%rsp),%eax
  4017ce:	69 c0 d2 41 00 00    	imul   $0x41d2,%eax,%eax
  4017d4:	89 44 24 24          	mov    %eax,0x24(%rsp)
  4017d8:	8b 44 24 24          	mov    0x24(%rsp),%eax
  4017dc:	69 c0 89 b1 00 00    	imul   $0xb189,%eax,%eax
  4017e2:	89 44 24 24          	mov    %eax,0x24(%rsp)
  4017e6:	8b 44 24 18          	mov    0x18(%rsp),%eax
  4017ea:	69 c0 a9 3a 00 00    	imul   $0x3aa9,%eax,%eax
  4017f0:	89 44 24 18          	mov    %eax,0x18(%rsp)
  4017f4:	8b 44 24 08          	mov    0x8(%rsp),%eax
  4017f8:	69 c0 94 36 00 00    	imul   $0x3694,%eax,%eax
  4017fe:	89 44 24 08          	mov    %eax,0x8(%rsp)
  401802:	8b 44 24 24          	mov    0x24(%rsp),%eax
  401806:	69 c0 37 b8 00 00    	imul   $0xb837,%eax,%eax
  40180c:	89 44 24 24          	mov    %eax,0x24(%rsp)
  401810:	8b 44 24 1c          	mov    0x1c(%rsp),%eax
  401814:	69 c0 85 26 00 00    	imul   $0x2685,%eax,%eax
  40181a:	89 44 24 1c          	mov    %eax,0x1c(%rsp)
  40181e:	8b 44 24 18          	mov    0x18(%rsp),%eax
  401822:	69 c0 cd 44 00 00    	imul   $0x44cd,%eax,%eax
  401828:	89 44 24 18          	mov    %eax,0x18(%rsp)
  40182c:	8b 44 24 0c          	mov    0xc(%rsp),%eax
  401830:	69 c0 03 43 00 00    	imul   $0x4303,%eax,%eax
  401836:	89 44 24 0c          	mov    %eax,0xc(%rsp)
  40183a:	8b 44 24 14          	mov    0x14(%rsp),%eax
  40183e:	89 c2                	mov    %eax,%edx
  401840:	c1 e2 04             	shl    $0x4,%edx
  401843:	c1 e0 08             	shl    $0x8,%eax
  401846:	01 d0                	add    %edx,%eax
  401848:	89 44 24 14          	mov    %eax,0x14(%rsp)
  40184c:	8b 44 24 1c          	mov    0x1c(%rsp),%eax
  401850:	69 c0 f9 f7 00 00    	imul   $0xf7f9,%eax,%eax
  401856:	89 44 24 1c          	mov    %eax,0x1c(%rsp)
  40185a:	8b 44 24 10          	mov    0x10(%rsp),%eax
  40185e:	69 c0 9d 8e 00 00    	imul   $0x8e9d,%eax,%eax
  401864:	89 44 24 10          	mov    %eax,0x10(%rsp)
  401868:	ba 00 00 00 00       	mov    $0x0,%edx
  40186d:	b8 00 00 00 00       	mov    $0x0,%eax
  401872:	eb 0a                	jmp    40187e <scramble+0x599>
  401874:	89 d1                	mov    %edx,%ecx
  401876:	8b 0c 8c             	mov    (%rsp,%rcx,4),%ecx
  401879:	01 c8                	add    %ecx,%eax
  40187b:	83 c2 01             	add    $0x1,%edx
  40187e:	83 fa 09             	cmp    $0x9,%edx
  401881:	76 f1                	jbe    401874 <scramble+0x58f>
  401883:	48 8b 74 24 28       	mov    0x28(%rsp),%rsi
  401888:	64 48 33 34 25 28 00 	xor    %fs:0x28,%rsi
  40188f:	00 00 
  401891:	74 05                	je     401898 <scramble+0x5b3>
  401893:	e8 08 f4 ff ff       	callq  400ca0 <__stack_chk_fail@plt>
  401898:	48 83 c4 38          	add    $0x38,%rsp
  40189c:	c3                   	retq   

000000000040189d <getbuf>:
  40189d:	48 83 ec 38          	sub    $0x38,%rsp
  4018a1:	48 89 e7             	mov    %rsp,%rdi
  4018a4:	e8 7e 02 00 00       	callq  401b27 <Gets>
  4018a9:	b8 01 00 00 00       	mov    $0x1,%eax
  4018ae:	48 83 c4 38          	add    $0x38,%rsp
  4018b2:	c3                   	retq   

00000000004018b3 <touch1>:
  4018b3:	48 83 ec 08          	sub    $0x8,%rsp
  4018b7:	c7 05 3b 2c 20 00 01 	movl   $0x1,0x202c3b(%rip)        # 6044fc <vlevel>
  4018be:	00 00 00 
  4018c1:	bf ae 31 40 00       	mov    $0x4031ae,%edi
  4018c6:	e8 b5 f3 ff ff       	callq  400c80 <puts@plt>
  4018cb:	bf 01 00 00 00       	mov    $0x1,%edi
  4018d0:	e8 97 04 00 00       	callq  401d6c <validate>
  4018d5:	bf 00 00 00 00       	mov    $0x0,%edi
  4018da:	e8 21 f5 ff ff       	callq  400e00 <exit@plt>

00000000004018df <touch2>:
  4018df:	48 83 ec 08          	sub    $0x8,%rsp
  4018e3:	89 fa                	mov    %edi,%edx
  4018e5:	c7 05 0d 2c 20 00 02 	movl   $0x2,0x202c0d(%rip)        # 6044fc <vlevel>
  4018ec:	00 00 00 
  4018ef:	39 3d 0f 2c 20 00    	cmp    %edi,0x202c0f(%rip)        # 604504 <cookie>
  4018f5:	75 20                	jne    401917 <touch2+0x38>
  4018f7:	be d0 31 40 00       	mov    $0x4031d0,%esi
  4018fc:	bf 01 00 00 00       	mov    $0x1,%edi
  401901:	b8 00 00 00 00       	mov    $0x0,%eax
  401906:	e8 a5 f4 ff ff       	callq  400db0 <__printf_chk@plt>
  40190b:	bf 02 00 00 00       	mov    $0x2,%edi
  401910:	e8 57 04 00 00       	callq  401d6c <validate>
  401915:	eb 1e                	jmp    401935 <touch2+0x56>
  401917:	be f8 31 40 00       	mov    $0x4031f8,%esi
  40191c:	bf 01 00 00 00       	mov    $0x1,%edi
  401921:	b8 00 00 00 00       	mov    $0x0,%eax
  401926:	e8 85 f4 ff ff       	callq  400db0 <__printf_chk@plt>
  40192b:	bf 02 00 00 00       	mov    $0x2,%edi
  401930:	e8 f9 04 00 00       	callq  401e2e <fail>
  401935:	bf 00 00 00 00       	mov    $0x0,%edi
  40193a:	e8 c1 f4 ff ff       	callq  400e00 <exit@plt>

000000000040193f <hexmatch>:
  40193f:	41 54                	push   %r12
  401941:	55                   	push   %rbp
  401942:	53                   	push   %rbx
  401943:	48 83 c4 80          	add    $0xffffffffffffff80,%rsp
  401947:	89 fd                	mov    %edi,%ebp
  401949:	48 89 f3             	mov    %rsi,%rbx
  40194c:	64 48 8b 04 25 28 00 	mov    %fs:0x28,%rax
  401953:	00 00 
  401955:	48 89 44 24 78       	mov    %rax,0x78(%rsp)
  40195a:	31 c0                	xor    %eax,%eax
  40195c:	e8 0f f4 ff ff       	callq  400d70 <random@plt>
  401961:	48 89 c1             	mov    %rax,%rcx
  401964:	48 ba 0b d7 a3 70 3d 	movabs $0xa3d70a3d70a3d70b,%rdx
  40196b:	0a d7 a3 
  40196e:	48 f7 ea             	imul   %rdx
  401971:	48 01 ca             	add    %rcx,%rdx
  401974:	48 c1 fa 06          	sar    $0x6,%rdx
  401978:	48 89 c8             	mov    %rcx,%rax
  40197b:	48 c1 f8 3f          	sar    $0x3f,%rax
  40197f:	48 29 c2             	sub    %rax,%rdx
  401982:	48 8d 04 92          	lea    (%rdx,%rdx,4),%rax
  401986:	48 8d 14 80          	lea    (%rax,%rax,4),%rdx
  40198a:	48 8d 04 95 00 00 00 	lea    0x0(,%rdx,4),%rax
  401991:	00 
  401992:	48 29 c1             	sub    %rax,%rcx
  401995:	4c 8d 24 0c          	lea    (%rsp,%rcx,1),%r12
  401999:	41 89 e8             	mov    %ebp,%r8d
  40199c:	b9 cb 31 40 00       	mov    $0x4031cb,%ecx
  4019a1:	48 c7 c2 ff ff ff ff 	mov    $0xffffffffffffffff,%rdx
  4019a8:	be 01 00 00 00       	mov    $0x1,%esi
  4019ad:	4c 89 e7             	mov    %r12,%rdi
  4019b0:	b8 00 00 00 00       	mov    $0x0,%eax
  4019b5:	e8 76 f4 ff ff       	callq  400e30 <__sprintf_chk@plt>
  4019ba:	ba 09 00 00 00       	mov    $0x9,%edx
  4019bf:	4c 89 e6             	mov    %r12,%rsi
  4019c2:	48 89 df             	mov    %rbx,%rdi
  4019c5:	e8 96 f2 ff ff       	callq  400c60 <strncmp@plt>
  4019ca:	85 c0                	test   %eax,%eax
  4019cc:	0f 94 c0             	sete   %al
  4019cf:	48 8b 5c 24 78       	mov    0x78(%rsp),%rbx
  4019d4:	64 48 33 1c 25 28 00 	xor    %fs:0x28,%rbx
  4019db:	00 00 
  4019dd:	74 05                	je     4019e4 <hexmatch+0xa5>
  4019df:	e8 bc f2 ff ff       	callq  400ca0 <__stack_chk_fail@plt>
  4019e4:	0f b6 c0             	movzbl %al,%eax
  4019e7:	48 83 ec 80          	sub    $0xffffffffffffff80,%rsp
  4019eb:	5b                   	pop    %rbx
  4019ec:	5d                   	pop    %rbp
  4019ed:	41 5c                	pop    %r12
  4019ef:	c3                   	retq   

00000000004019f0 <touch3>:
  4019f0:	53                   	push   %rbx
  4019f1:	48 89 fb             	mov    %rdi,%rbx
  4019f4:	c7 05 fe 2a 20 00 03 	movl   $0x3,0x202afe(%rip)        # 6044fc <vlevel>
  4019fb:	00 00 00 
  4019fe:	48 89 fe             	mov    %rdi,%rsi
  401a01:	8b 3d fd 2a 20 00    	mov    0x202afd(%rip),%edi        # 604504 <cookie>
  401a07:	e8 33 ff ff ff       	callq  40193f <hexmatch>
  401a0c:	85 c0                	test   %eax,%eax
  401a0e:	74 23                	je     401a33 <touch3+0x43>
  401a10:	48 89 da             	mov    %rbx,%rdx
  401a13:	be 20 32 40 00       	mov    $0x403220,%esi
  401a18:	bf 01 00 00 00       	mov    $0x1,%edi
  401a1d:	b8 00 00 00 00       	mov    $0x0,%eax
  401a22:	e8 89 f3 ff ff       	callq  400db0 <__printf_chk@plt>
  401a27:	bf 03 00 00 00       	mov    $0x3,%edi
  401a2c:	e8 3b 03 00 00       	callq  401d6c <validate>
  401a31:	eb 21                	jmp    401a54 <touch3+0x64>
  401a33:	48 89 da             	mov    %rbx,%rdx
  401a36:	be 48 32 40 00       	mov    $0x403248,%esi
  401a3b:	bf 01 00 00 00       	mov    $0x1,%edi
  401a40:	b8 00 00 00 00       	mov    $0x0,%eax
  401a45:	e8 66 f3 ff ff       	callq  400db0 <__printf_chk@plt>
  401a4a:	bf 03 00 00 00       	mov    $0x3,%edi
  401a4f:	e8 da 03 00 00       	callq  401e2e <fail>
  401a54:	bf 00 00 00 00       	mov    $0x0,%edi
  401a59:	e8 a2 f3 ff ff       	callq  400e00 <exit@plt>

0000000000401a5e <test>:
  401a5e:	48 83 ec 08          	sub    $0x8,%rsp
  401a62:	b8 00 00 00 00       	mov    $0x0,%eax
  401a67:	e8 31 fe ff ff       	callq  40189d <getbuf>
  401a6c:	89 c2                	mov    %eax,%edx
  401a6e:	be 70 32 40 00       	mov    $0x403270,%esi
  401a73:	bf 01 00 00 00       	mov    $0x1,%edi
  401a78:	b8 00 00 00 00       	mov    $0x0,%eax
  401a7d:	e8 2e f3 ff ff       	callq  400db0 <__printf_chk@plt>
  401a82:	48 83 c4 08          	add    $0x8,%rsp
  401a86:	c3                   	retq   

0000000000401a87 <save_char>:
  401a87:	8b 05 97 36 20 00    	mov    0x203697(%rip),%eax        # 605124 <gets_cnt>
  401a8d:	3d ff 03 00 00       	cmp    $0x3ff,%eax
  401a92:	7f 49                	jg     401add <save_char+0x56>
  401a94:	8d 14 40             	lea    (%rax,%rax,2),%edx
  401a97:	89 f9                	mov    %edi,%ecx
  401a99:	c0 e9 04             	shr    $0x4,%cl
  401a9c:	83 e1 0f             	and    $0xf,%ecx
  401a9f:	0f b6 b1 90 35 40 00 	movzbl 0x403590(%rcx),%esi
  401aa6:	48 63 ca             	movslq %edx,%rcx
  401aa9:	40 88 b1 20 45 60 00 	mov    %sil,0x604520(%rcx)
  401ab0:	8d 4a 01             	lea    0x1(%rdx),%ecx
  401ab3:	83 e7 0f             	and    $0xf,%edi
  401ab6:	0f b6 b7 90 35 40 00 	movzbl 0x403590(%rdi),%esi
  401abd:	48 63 c9             	movslq %ecx,%rcx
  401ac0:	40 88 b1 20 45 60 00 	mov    %sil,0x604520(%rcx)
  401ac7:	83 c2 02             	add    $0x2,%edx
  401aca:	48 63 d2             	movslq %edx,%rdx
  401acd:	c6 82 20 45 60 00 20 	movb   $0x20,0x604520(%rdx)
  401ad4:	83 c0 01             	add    $0x1,%eax
  401ad7:	89 05 47 36 20 00    	mov    %eax,0x203647(%rip)        # 605124 <gets_cnt>
  401add:	f3 c3                	repz retq 

0000000000401adf <save_term>:
  401adf:	8b 05 3f 36 20 00    	mov    0x20363f(%rip),%eax        # 605124 <gets_cnt>
  401ae5:	8d 04 40             	lea    (%rax,%rax,2),%eax
  401ae8:	48 98                	cltq   
  401aea:	c6 80 20 45 60 00 00 	movb   $0x0,0x604520(%rax)
  401af1:	c3                   	retq   

0000000000401af2 <check_fail>:
  401af2:	48 83 ec 08          	sub    $0x8,%rsp
  401af6:	0f be 15 2b 36 20 00 	movsbl 0x20362b(%rip),%edx        # 605128 <target_prefix>
  401afd:	41 b8 20 45 60 00    	mov    $0x604520,%r8d
  401b03:	8b 0d ef 29 20 00    	mov    0x2029ef(%rip),%ecx        # 6044f8 <check_level>
  401b09:	be 93 32 40 00       	mov    $0x403293,%esi
  401b0e:	bf 01 00 00 00       	mov    $0x1,%edi
  401b13:	b8 00 00 00 00       	mov    $0x0,%eax
  401b18:	e8 93 f2 ff ff       	callq  400db0 <__printf_chk@plt>
  401b1d:	bf 01 00 00 00       	mov    $0x1,%edi
  401b22:	e8 d9 f2 ff ff       	callq  400e00 <exit@plt>

0000000000401b27 <Gets>:
  401b27:	41 54                	push   %r12
  401b29:	55                   	push   %rbp
  401b2a:	53                   	push   %rbx
  401b2b:	49 89 fc             	mov    %rdi,%r12
  401b2e:	c7 05 ec 35 20 00 00 	movl   $0x0,0x2035ec(%rip)        # 605124 <gets_cnt>
  401b35:	00 00 00 
  401b38:	48 89 fb             	mov    %rdi,%rbx
  401b3b:	eb 11                	jmp    401b4e <Gets+0x27>
  401b3d:	48 8d 6b 01          	lea    0x1(%rbx),%rbp
  401b41:	88 03                	mov    %al,(%rbx)
  401b43:	0f b6 f8             	movzbl %al,%edi
  401b46:	e8 3c ff ff ff       	callq  401a87 <save_char>
  401b4b:	48 89 eb             	mov    %rbp,%rbx
  401b4e:	48 8b 3d 9b 29 20 00 	mov    0x20299b(%rip),%rdi        # 6044f0 <infile>
  401b55:	e8 26 f2 ff ff       	callq  400d80 <_IO_getc@plt>
  401b5a:	83 f8 ff             	cmp    $0xffffffff,%eax
  401b5d:	74 05                	je     401b64 <Gets+0x3d>
  401b5f:	83 f8 0a             	cmp    $0xa,%eax
  401b62:	75 d9                	jne    401b3d <Gets+0x16>
  401b64:	c6 03 00             	movb   $0x0,(%rbx)
  401b67:	b8 00 00 00 00       	mov    $0x0,%eax
  401b6c:	e8 6e ff ff ff       	callq  401adf <save_term>
  401b71:	4c 89 e0             	mov    %r12,%rax
  401b74:	5b                   	pop    %rbx
  401b75:	5d                   	pop    %rbp
  401b76:	41 5c                	pop    %r12
  401b78:	c3                   	retq   

0000000000401b79 <notify_server>:
  401b79:	53                   	push   %rbx
  401b7a:	48 81 ec 10 40 00 00 	sub    $0x4010,%rsp
  401b81:	64 48 8b 04 25 28 00 	mov    %fs:0x28,%rax
  401b88:	00 00 
  401b8a:	48 89 84 24 08 40 00 	mov    %rax,0x4008(%rsp)
  401b91:	00 
  401b92:	31 c0                	xor    %eax,%eax
  401b94:	83 3d 6d 29 20 00 00 	cmpl   $0x0,0x20296d(%rip)        # 604508 <is_checker>
  401b9b:	0f 85 aa 01 00 00    	jne    401d4b <notify_server+0x1d2>
  401ba1:	89 fb                	mov    %edi,%ebx
  401ba3:	8b 05 7b 35 20 00    	mov    0x20357b(%rip),%eax        # 605124 <gets_cnt>
  401ba9:	83 c0 64             	add    $0x64,%eax
  401bac:	3d 00 20 00 00       	cmp    $0x2000,%eax
  401bb1:	7e 1e                	jle    401bd1 <notify_server+0x58>
  401bb3:	be c8 33 40 00       	mov    $0x4033c8,%esi
  401bb8:	bf 01 00 00 00       	mov    $0x1,%edi
  401bbd:	b8 00 00 00 00       	mov    $0x0,%eax
  401bc2:	e8 e9 f1 ff ff       	callq  400db0 <__printf_chk@plt>
  401bc7:	bf 01 00 00 00       	mov    $0x1,%edi
  401bcc:	e8 2f f2 ff ff       	callq  400e00 <exit@plt>
  401bd1:	0f be 05 50 35 20 00 	movsbl 0x203550(%rip),%eax        # 605128 <target_prefix>
  401bd8:	83 3d a9 28 20 00 00 	cmpl   $0x0,0x2028a9(%rip)        # 604488 <notify>
  401bdf:	74 08                	je     401be9 <notify_server+0x70>
  401be1:	8b 15 19 29 20 00    	mov    0x202919(%rip),%edx        # 604500 <authkey>
  401be7:	eb 05                	jmp    401bee <notify_server+0x75>
  401be9:	ba ff ff ff ff       	mov    $0xffffffff,%edx
  401bee:	85 db                	test   %ebx,%ebx
  401bf0:	74 08                	je     401bfa <notify_server+0x81>
  401bf2:	41 b9 a9 32 40 00    	mov    $0x4032a9,%r9d
  401bf8:	eb 06                	jmp    401c00 <notify_server+0x87>
  401bfa:	41 b9 ae 32 40 00    	mov    $0x4032ae,%r9d
  401c00:	68 20 45 60 00       	pushq  $0x604520
  401c05:	56                   	push   %rsi
  401c06:	50                   	push   %rax
  401c07:	52                   	push   %rdx
  401c08:	44 8b 05 39 25 20 00 	mov    0x202539(%rip),%r8d        # 604148 <target_id>
  401c0f:	b9 b3 32 40 00       	mov    $0x4032b3,%ecx
  401c14:	ba 00 20 00 00       	mov    $0x2000,%edx
  401c19:	be 01 00 00 00       	mov    $0x1,%esi
  401c1e:	48 8d 7c 24 20       	lea    0x20(%rsp),%rdi
  401c23:	b8 00 00 00 00       	mov    $0x0,%eax
  401c28:	e8 03 f2 ff ff       	callq  400e30 <__sprintf_chk@plt>
  401c2d:	48 83 c4 20          	add    $0x20,%rsp
  401c31:	83 3d 50 28 20 00 00 	cmpl   $0x0,0x202850(%rip)        # 604488 <notify>
  401c38:	0f 84 81 00 00 00    	je     401cbf <notify_server+0x146>
  401c3e:	85 db                	test   %ebx,%ebx
  401c40:	74 6e                	je     401cb0 <notify_server+0x137>
  401c42:	4c 8d 8c 24 00 20 00 	lea    0x2000(%rsp),%r9
  401c49:	00 
  401c4a:	41 b8 00 00 00 00    	mov    $0x0,%r8d
  401c50:	48 89 e1             	mov    %rsp,%rcx
  401c53:	48 8b 15 f6 24 20 00 	mov    0x2024f6(%rip),%rdx        # 604150 <lab>
  401c5a:	48 8b 35 f7 24 20 00 	mov    0x2024f7(%rip),%rsi        # 604158 <course>
  401c61:	48 8b 3d d8 24 20 00 	mov    0x2024d8(%rip),%rdi        # 604140 <user_id>
  401c68:	e8 ef 10 00 00       	callq  402d5c <driver_post>
  401c6d:	85 c0                	test   %eax,%eax
  401c6f:	79 26                	jns    401c97 <notify_server+0x11e>
  401c71:	48 8d 94 24 00 20 00 	lea    0x2000(%rsp),%rdx
  401c78:	00 
  401c79:	be cf 32 40 00       	mov    $0x4032cf,%esi
  401c7e:	bf 01 00 00 00       	mov    $0x1,%edi
  401c83:	b8 00 00 00 00       	mov    $0x0,%eax
  401c88:	e8 23 f1 ff ff       	callq  400db0 <__printf_chk@plt>
  401c8d:	bf 01 00 00 00       	mov    $0x1,%edi
  401c92:	e8 69 f1 ff ff       	callq  400e00 <exit@plt>
  401c97:	bf f8 33 40 00       	mov    $0x4033f8,%edi
  401c9c:	e8 df ef ff ff       	callq  400c80 <puts@plt>
  401ca1:	bf db 32 40 00       	mov    $0x4032db,%edi
  401ca6:	e8 d5 ef ff ff       	callq  400c80 <puts@plt>
  401cab:	e9 9b 00 00 00       	jmpq   401d4b <notify_server+0x1d2>
  401cb0:	bf e5 32 40 00       	mov    $0x4032e5,%edi
  401cb5:	e8 c6 ef ff ff       	callq  400c80 <puts@plt>
  401cba:	e9 8c 00 00 00       	jmpq   401d4b <notify_server+0x1d2>
  401cbf:	85 db                	test   %ebx,%ebx
  401cc1:	74 07                	je     401cca <notify_server+0x151>
  401cc3:	ba a9 32 40 00       	mov    $0x4032a9,%edx
  401cc8:	eb 05                	jmp    401ccf <notify_server+0x156>
  401cca:	ba ae 32 40 00       	mov    $0x4032ae,%edx
  401ccf:	be 30 34 40 00       	mov    $0x403430,%esi
  401cd4:	bf 01 00 00 00       	mov    $0x1,%edi
  401cd9:	b8 00 00 00 00       	mov    $0x0,%eax
  401cde:	e8 cd f0 ff ff       	callq  400db0 <__printf_chk@plt>
  401ce3:	48 8b 15 56 24 20 00 	mov    0x202456(%rip),%rdx        # 604140 <user_id>
  401cea:	be ec 32 40 00       	mov    $0x4032ec,%esi
  401cef:	bf 01 00 00 00       	mov    $0x1,%edi
  401cf4:	b8 00 00 00 00       	mov    $0x0,%eax
  401cf9:	e8 b2 f0 ff ff       	callq  400db0 <__printf_chk@plt>
  401cfe:	48 8b 15 53 24 20 00 	mov    0x202453(%rip),%rdx        # 604158 <course>
  401d05:	be f9 32 40 00       	mov    $0x4032f9,%esi
  401d0a:	bf 01 00 00 00       	mov    $0x1,%edi
  401d0f:	b8 00 00 00 00       	mov    $0x0,%eax
  401d14:	e8 97 f0 ff ff       	callq  400db0 <__printf_chk@plt>
  401d19:	48 8b 15 30 24 20 00 	mov    0x202430(%rip),%rdx        # 604150 <lab>
  401d20:	be 05 33 40 00       	mov    $0x403305,%esi
  401d25:	bf 01 00 00 00       	mov    $0x1,%edi
  401d2a:	b8 00 00 00 00       	mov    $0x0,%eax
  401d2f:	e8 7c f0 ff ff       	callq  400db0 <__printf_chk@plt>
  401d34:	48 89 e2             	mov    %rsp,%rdx
  401d37:	be 0e 33 40 00       	mov    $0x40330e,%esi
  401d3c:	bf 01 00 00 00       	mov    $0x1,%edi
  401d41:	b8 00 00 00 00       	mov    $0x0,%eax
  401d46:	e8 65 f0 ff ff       	callq  400db0 <__printf_chk@plt>
  401d4b:	48 8b 84 24 08 40 00 	mov    0x4008(%rsp),%rax
  401d52:	00 
  401d53:	64 48 33 04 25 28 00 	xor    %fs:0x28,%rax
  401d5a:	00 00 
  401d5c:	74 05                	je     401d63 <notify_server+0x1ea>
  401d5e:	e8 3d ef ff ff       	callq  400ca0 <__stack_chk_fail@plt>
  401d63:	48 81 c4 10 40 00 00 	add    $0x4010,%rsp
  401d6a:	5b                   	pop    %rbx
  401d6b:	c3                   	retq   

0000000000401d6c <validate>:
  401d6c:	53                   	push   %rbx
  401d6d:	89 fb                	mov    %edi,%ebx
  401d6f:	83 3d 92 27 20 00 00 	cmpl   $0x0,0x202792(%rip)        # 604508 <is_checker>
  401d76:	74 6b                	je     401de3 <validate+0x77>
  401d78:	39 3d 7e 27 20 00    	cmp    %edi,0x20277e(%rip)        # 6044fc <vlevel>
  401d7e:	74 14                	je     401d94 <validate+0x28>
  401d80:	bf 1a 33 40 00       	mov    $0x40331a,%edi
  401d85:	e8 f6 ee ff ff       	callq  400c80 <puts@plt>
  401d8a:	b8 00 00 00 00       	mov    $0x0,%eax
  401d8f:	e8 5e fd ff ff       	callq  401af2 <check_fail>
  401d94:	8b 15 5e 27 20 00    	mov    0x20275e(%rip),%edx        # 6044f8 <check_level>
  401d9a:	39 d7                	cmp    %edx,%edi
  401d9c:	74 20                	je     401dbe <validate+0x52>
  401d9e:	89 f9                	mov    %edi,%ecx
  401da0:	be 58 34 40 00       	mov    $0x403458,%esi
  401da5:	bf 01 00 00 00       	mov    $0x1,%edi
  401daa:	b8 00 00 00 00       	mov    $0x0,%eax
  401daf:	e8 fc ef ff ff       	callq  400db0 <__printf_chk@plt>
  401db4:	b8 00 00 00 00       	mov    $0x0,%eax
  401db9:	e8 34 fd ff ff       	callq  401af2 <check_fail>
  401dbe:	0f be 15 63 33 20 00 	movsbl 0x203363(%rip),%edx        # 605128 <target_prefix>
  401dc5:	41 b8 20 45 60 00    	mov    $0x604520,%r8d
  401dcb:	89 f9                	mov    %edi,%ecx
  401dcd:	be 38 33 40 00       	mov    $0x403338,%esi
  401dd2:	bf 01 00 00 00       	mov    $0x1,%edi
  401dd7:	b8 00 00 00 00       	mov    $0x0,%eax
  401ddc:	e8 cf ef ff ff       	callq  400db0 <__printf_chk@plt>
  401de1:	eb 49                	jmp    401e2c <validate+0xc0>
  401de3:	3b 3d 13 27 20 00    	cmp    0x202713(%rip),%edi        # 6044fc <vlevel>
  401de9:	74 18                	je     401e03 <validate+0x97>
  401deb:	bf 1a 33 40 00       	mov    $0x40331a,%edi
  401df0:	e8 8b ee ff ff       	callq  400c80 <puts@plt>
  401df5:	89 de                	mov    %ebx,%esi
  401df7:	bf 00 00 00 00       	mov    $0x0,%edi
  401dfc:	e8 78 fd ff ff       	callq  401b79 <notify_server>
  401e01:	eb 29                	jmp    401e2c <validate+0xc0>
  401e03:	0f be 0d 1e 33 20 00 	movsbl 0x20331e(%rip),%ecx        # 605128 <target_prefix>
  401e0a:	89 fa                	mov    %edi,%edx
  401e0c:	be 80 34 40 00       	mov    $0x403480,%esi
  401e11:	bf 01 00 00 00       	mov    $0x1,%edi
  401e16:	b8 00 00 00 00       	mov    $0x0,%eax
  401e1b:	e8 90 ef ff ff       	callq  400db0 <__printf_chk@plt>
  401e20:	89 de                	mov    %ebx,%esi
  401e22:	bf 01 00 00 00       	mov    $0x1,%edi
  401e27:	e8 4d fd ff ff       	callq  401b79 <notify_server>
  401e2c:	5b                   	pop    %rbx
  401e2d:	c3                   	retq   

0000000000401e2e <fail>:
  401e2e:	48 83 ec 08          	sub    $0x8,%rsp
  401e32:	83 3d cf 26 20 00 00 	cmpl   $0x0,0x2026cf(%rip)        # 604508 <is_checker>
  401e39:	74 0a                	je     401e45 <fail+0x17>
  401e3b:	b8 00 00 00 00       	mov    $0x0,%eax
  401e40:	e8 ad fc ff ff       	callq  401af2 <check_fail>
  401e45:	89 fe                	mov    %edi,%esi
  401e47:	bf 00 00 00 00       	mov    $0x0,%edi
  401e4c:	e8 28 fd ff ff       	callq  401b79 <notify_server>
  401e51:	48 83 c4 08          	add    $0x8,%rsp
  401e55:	c3                   	retq   

0000000000401e56 <bushandler>:
  401e56:	48 83 ec 08          	sub    $0x8,%rsp
  401e5a:	83 3d a7 26 20 00 00 	cmpl   $0x0,0x2026a7(%rip)        # 604508 <is_checker>
  401e61:	74 14                	je     401e77 <bushandler+0x21>
  401e63:	bf 4d 33 40 00       	mov    $0x40334d,%edi
  401e68:	e8 13 ee ff ff       	callq  400c80 <puts@plt>
  401e6d:	b8 00 00 00 00       	mov    $0x0,%eax
  401e72:	e8 7b fc ff ff       	callq  401af2 <check_fail>
  401e77:	bf b8 34 40 00       	mov    $0x4034b8,%edi
  401e7c:	e8 ff ed ff ff       	callq  400c80 <puts@plt>
  401e81:	bf 57 33 40 00       	mov    $0x403357,%edi
  401e86:	e8 f5 ed ff ff       	callq  400c80 <puts@plt>
  401e8b:	be 00 00 00 00       	mov    $0x0,%esi
  401e90:	bf 00 00 00 00       	mov    $0x0,%edi
  401e95:	e8 df fc ff ff       	callq  401b79 <notify_server>
  401e9a:	bf 01 00 00 00       	mov    $0x1,%edi
  401e9f:	e8 5c ef ff ff       	callq  400e00 <exit@plt>

0000000000401ea4 <seghandler>:
  401ea4:	48 83 ec 08          	sub    $0x8,%rsp
  401ea8:	83 3d 59 26 20 00 00 	cmpl   $0x0,0x202659(%rip)        # 604508 <is_checker>
  401eaf:	74 14                	je     401ec5 <seghandler+0x21>
  401eb1:	bf 6d 33 40 00       	mov    $0x40336d,%edi
  401eb6:	e8 c5 ed ff ff       	callq  400c80 <puts@plt>
  401ebb:	b8 00 00 00 00       	mov    $0x0,%eax
  401ec0:	e8 2d fc ff ff       	callq  401af2 <check_fail>
  401ec5:	bf d8 34 40 00       	mov    $0x4034d8,%edi
  401eca:	e8 b1 ed ff ff       	callq  400c80 <puts@plt>
  401ecf:	bf 57 33 40 00       	mov    $0x403357,%edi
  401ed4:	e8 a7 ed ff ff       	callq  400c80 <puts@plt>
  401ed9:	be 00 00 00 00       	mov    $0x0,%esi
  401ede:	bf 00 00 00 00       	mov    $0x0,%edi
  401ee3:	e8 91 fc ff ff       	callq  401b79 <notify_server>
  401ee8:	bf 01 00 00 00       	mov    $0x1,%edi
  401eed:	e8 0e ef ff ff       	callq  400e00 <exit@plt>

0000000000401ef2 <illegalhandler>:
  401ef2:	48 83 ec 08          	sub    $0x8,%rsp
  401ef6:	83 3d 0b 26 20 00 00 	cmpl   $0x0,0x20260b(%rip)        # 604508 <is_checker>
  401efd:	74 14                	je     401f13 <illegalhandler+0x21>
  401eff:	bf 80 33 40 00       	mov    $0x403380,%edi
  401f04:	e8 77 ed ff ff       	callq  400c80 <puts@plt>
  401f09:	b8 00 00 00 00       	mov    $0x0,%eax
  401f0e:	e8 df fb ff ff       	callq  401af2 <check_fail>
  401f13:	bf 00 35 40 00       	mov    $0x403500,%edi
  401f18:	e8 63 ed ff ff       	callq  400c80 <puts@plt>
  401f1d:	bf 57 33 40 00       	mov    $0x403357,%edi
  401f22:	e8 59 ed ff ff       	callq  400c80 <puts@plt>
  401f27:	be 00 00 00 00       	mov    $0x0,%esi
  401f2c:	bf 00 00 00 00       	mov    $0x0,%edi
  401f31:	e8 43 fc ff ff       	callq  401b79 <notify_server>
  401f36:	bf 01 00 00 00       	mov    $0x1,%edi
  401f3b:	e8 c0 ee ff ff       	callq  400e00 <exit@plt>

0000000000401f40 <sigalrmhandler>:
  401f40:	48 83 ec 08          	sub    $0x8,%rsp
  401f44:	83 3d bd 25 20 00 00 	cmpl   $0x0,0x2025bd(%rip)        # 604508 <is_checker>
  401f4b:	74 14                	je     401f61 <sigalrmhandler+0x21>
  401f4d:	bf 94 33 40 00       	mov    $0x403394,%edi
  401f52:	e8 29 ed ff ff       	callq  400c80 <puts@plt>
  401f57:	b8 00 00 00 00       	mov    $0x0,%eax
  401f5c:	e8 91 fb ff ff       	callq  401af2 <check_fail>
  401f61:	ba 05 00 00 00       	mov    $0x5,%edx
  401f66:	be 30 35 40 00       	mov    $0x403530,%esi
  401f6b:	bf 01 00 00 00       	mov    $0x1,%edi
  401f70:	b8 00 00 00 00       	mov    $0x0,%eax
  401f75:	e8 36 ee ff ff       	callq  400db0 <__printf_chk@plt>
  401f7a:	be 00 00 00 00       	mov    $0x0,%esi
  401f7f:	bf 00 00 00 00       	mov    $0x0,%edi
  401f84:	e8 f0 fb ff ff       	callq  401b79 <notify_server>
  401f89:	bf 01 00 00 00       	mov    $0x1,%edi
  401f8e:	e8 6d ee ff ff       	callq  400e00 <exit@plt>

0000000000401f93 <launch>:
  401f93:	55                   	push   %rbp
  401f94:	48 89 e5             	mov    %rsp,%rbp
  401f97:	48 83 ec 10          	sub    $0x10,%rsp
  401f9b:	48 89 fa             	mov    %rdi,%rdx
  401f9e:	64 48 8b 04 25 28 00 	mov    %fs:0x28,%rax
  401fa5:	00 00 
  401fa7:	48 89 45 f8          	mov    %rax,-0x8(%rbp)
  401fab:	31 c0                	xor    %eax,%eax
  401fad:	48 8d 47 1e          	lea    0x1e(%rdi),%rax
  401fb1:	48 83 e0 f0          	and    $0xfffffffffffffff0,%rax
  401fb5:	48 29 c4             	sub    %rax,%rsp
  401fb8:	48 8d 7c 24 0f       	lea    0xf(%rsp),%rdi
  401fbd:	48 83 e7 f0          	and    $0xfffffffffffffff0,%rdi
  401fc1:	be f4 00 00 00       	mov    $0xf4,%esi
  401fc6:	e8 f5 ec ff ff       	callq  400cc0 <memset@plt>
  401fcb:	48 8b 05 ce 24 20 00 	mov    0x2024ce(%rip),%rax        # 6044a0 <stdin@@GLIBC_2.2.5>
  401fd2:	48 39 05 17 25 20 00 	cmp    %rax,0x202517(%rip)        # 6044f0 <infile>
  401fd9:	75 14                	jne    401fef <launch+0x5c>
  401fdb:	be 9c 33 40 00       	mov    $0x40339c,%esi
  401fe0:	bf 01 00 00 00       	mov    $0x1,%edi
  401fe5:	b8 00 00 00 00       	mov    $0x0,%eax
  401fea:	e8 c1 ed ff ff       	callq  400db0 <__printf_chk@plt>
  401fef:	c7 05 03 25 20 00 00 	movl   $0x0,0x202503(%rip)        # 6044fc <vlevel>
  401ff6:	00 00 00 
  401ff9:	b8 00 00 00 00       	mov    $0x0,%eax
  401ffe:	e8 5b fa ff ff       	callq  401a5e <test>
  402003:	83 3d fe 24 20 00 00 	cmpl   $0x0,0x2024fe(%rip)        # 604508 <is_checker>
  40200a:	74 14                	je     402020 <launch+0x8d>
  40200c:	bf a9 33 40 00       	mov    $0x4033a9,%edi
  402011:	e8 6a ec ff ff       	callq  400c80 <puts@plt>
  402016:	b8 00 00 00 00       	mov    $0x0,%eax
  40201b:	e8 d2 fa ff ff       	callq  401af2 <check_fail>
  402020:	bf b4 33 40 00       	mov    $0x4033b4,%edi
  402025:	e8 56 ec ff ff       	callq  400c80 <puts@plt>
  40202a:	48 8b 45 f8          	mov    -0x8(%rbp),%rax
  40202e:	64 48 33 04 25 28 00 	xor    %fs:0x28,%rax
  402035:	00 00 
  402037:	74 05                	je     40203e <launch+0xab>
  402039:	e8 62 ec ff ff       	callq  400ca0 <__stack_chk_fail@plt>
  40203e:	c9                   	leaveq 
  40203f:	c3                   	retq   

0000000000402040 <stable_launch>:
  402040:	53                   	push   %rbx
  402041:	48 89 3d a0 24 20 00 	mov    %rdi,0x2024a0(%rip)        # 6044e8 <global_offset>
  402048:	41 b9 00 00 00 00    	mov    $0x0,%r9d
  40204e:	41 b8 00 00 00 00    	mov    $0x0,%r8d
  402054:	b9 32 01 00 00       	mov    $0x132,%ecx
  402059:	ba 07 00 00 00       	mov    $0x7,%edx
  40205e:	be 00 00 10 00       	mov    $0x100000,%esi
  402063:	bf 00 60 58 55       	mov    $0x55586000,%edi
  402068:	e8 43 ec ff ff       	callq  400cb0 <mmap@plt>
  40206d:	48 89 c3             	mov    %rax,%rbx
  402070:	48 3d 00 60 58 55    	cmp    $0x55586000,%rax
  402076:	74 37                	je     4020af <stable_launch+0x6f>
  402078:	be 00 00 10 00       	mov    $0x100000,%esi
  40207d:	48 89 c7             	mov    %rax,%rdi
  402080:	e8 1b ed ff ff       	callq  400da0 <munmap@plt>
  402085:	b9 00 60 58 55       	mov    $0x55586000,%ecx
  40208a:	ba 68 35 40 00       	mov    $0x403568,%edx
  40208f:	be 01 00 00 00       	mov    $0x1,%esi
  402094:	48 8b 3d 25 24 20 00 	mov    0x202425(%rip),%rdi        # 6044c0 <stderr@@GLIBC_2.2.5>
  40209b:	b8 00 00 00 00       	mov    $0x0,%eax
  4020a0:	e8 7b ed ff ff       	callq  400e20 <__fprintf_chk@plt>
  4020a5:	bf 01 00 00 00       	mov    $0x1,%edi
  4020aa:	e8 51 ed ff ff       	callq  400e00 <exit@plt>
  4020af:	48 8d 90 f8 ff 0f 00 	lea    0xffff8(%rax),%rdx
  4020b6:	48 89 15 73 30 20 00 	mov    %rdx,0x203073(%rip)        # 605130 <stack_top>
  4020bd:	48 89 e0             	mov    %rsp,%rax
  4020c0:	48 89 d4             	mov    %rdx,%rsp
  4020c3:	48 89 c2             	mov    %rax,%rdx
  4020c6:	48 89 15 13 24 20 00 	mov    %rdx,0x202413(%rip)        # 6044e0 <global_save_stack>
  4020cd:	48 8b 3d 14 24 20 00 	mov    0x202414(%rip),%rdi        # 6044e8 <global_offset>
  4020d4:	e8 ba fe ff ff       	callq  401f93 <launch>
  4020d9:	48 8b 05 00 24 20 00 	mov    0x202400(%rip),%rax        # 6044e0 <global_save_stack>
  4020e0:	48 89 c4             	mov    %rax,%rsp
  4020e3:	be 00 00 10 00       	mov    $0x100000,%esi
  4020e8:	48 89 df             	mov    %rbx,%rdi
  4020eb:	e8 b0 ec ff ff       	callq  400da0 <munmap@plt>
  4020f0:	5b                   	pop    %rbx
  4020f1:	c3                   	retq   

00000000004020f2 <rio_readinitb>:
  4020f2:	89 37                	mov    %esi,(%rdi)
  4020f4:	c7 47 04 00 00 00 00 	movl   $0x0,0x4(%rdi)
  4020fb:	48 8d 47 10          	lea    0x10(%rdi),%rax
  4020ff:	48 89 47 08          	mov    %rax,0x8(%rdi)
  402103:	c3                   	retq   

0000000000402104 <sigalrm_handler>:
  402104:	48 83 ec 08          	sub    $0x8,%rsp
  402108:	b9 00 00 00 00       	mov    $0x0,%ecx
  40210d:	ba a0 35 40 00       	mov    $0x4035a0,%edx
  402112:	be 01 00 00 00       	mov    $0x1,%esi
  402117:	48 8b 3d a2 23 20 00 	mov    0x2023a2(%rip),%rdi        # 6044c0 <stderr@@GLIBC_2.2.5>
  40211e:	b8 00 00 00 00       	mov    $0x0,%eax
  402123:	e8 f8 ec ff ff       	callq  400e20 <__fprintf_chk@plt>
  402128:	bf 01 00 00 00       	mov    $0x1,%edi
  40212d:	e8 ce ec ff ff       	callq  400e00 <exit@plt>

0000000000402132 <rio_writen>:
  402132:	41 55                	push   %r13
  402134:	41 54                	push   %r12
  402136:	55                   	push   %rbp
  402137:	53                   	push   %rbx
  402138:	48 83 ec 08          	sub    $0x8,%rsp
  40213c:	41 89 fc             	mov    %edi,%r12d
  40213f:	48 89 f5             	mov    %rsi,%rbp
  402142:	49 89 d5             	mov    %rdx,%r13
  402145:	48 89 d3             	mov    %rdx,%rbx
  402148:	eb 28                	jmp    402172 <rio_writen+0x40>
  40214a:	48 89 da             	mov    %rbx,%rdx
  40214d:	48 89 ee             	mov    %rbp,%rsi
  402150:	44 89 e7             	mov    %r12d,%edi
  402153:	e8 38 eb ff ff       	callq  400c90 <write@plt>
  402158:	48 85 c0             	test   %rax,%rax
  40215b:	7f 0f                	jg     40216c <rio_writen+0x3a>
  40215d:	e8 de ea ff ff       	callq  400c40 <__errno_location@plt>
  402162:	83 38 04             	cmpl   $0x4,(%rax)
  402165:	75 15                	jne    40217c <rio_writen+0x4a>
  402167:	b8 00 00 00 00       	mov    $0x0,%eax
  40216c:	48 29 c3             	sub    %rax,%rbx
  40216f:	48 01 c5             	add    %rax,%rbp
  402172:	48 85 db             	test   %rbx,%rbx
  402175:	75 d3                	jne    40214a <rio_writen+0x18>
  402177:	4c 89 e8             	mov    %r13,%rax
  40217a:	eb 07                	jmp    402183 <rio_writen+0x51>
  40217c:	48 c7 c0 ff ff ff ff 	mov    $0xffffffffffffffff,%rax
  402183:	48 83 c4 08          	add    $0x8,%rsp
  402187:	5b                   	pop    %rbx
  402188:	5d                   	pop    %rbp
  402189:	41 5c                	pop    %r12
  40218b:	41 5d                	pop    %r13
  40218d:	c3                   	retq   

000000000040218e <rio_read>:
  40218e:	41 55                	push   %r13
  402190:	41 54                	push   %r12
  402192:	55                   	push   %rbp
  402193:	53                   	push   %rbx
  402194:	48 83 ec 08          	sub    $0x8,%rsp
  402198:	48 89 fb             	mov    %rdi,%rbx
  40219b:	49 89 f5             	mov    %rsi,%r13
  40219e:	49 89 d4             	mov    %rdx,%r12
  4021a1:	eb 2e                	jmp    4021d1 <rio_read+0x43>
  4021a3:	48 8d 6b 10          	lea    0x10(%rbx),%rbp
  4021a7:	8b 3b                	mov    (%rbx),%edi
  4021a9:	ba 00 20 00 00       	mov    $0x2000,%edx
  4021ae:	48 89 ee             	mov    %rbp,%rsi
  4021b1:	e8 3a eb ff ff       	callq  400cf0 <read@plt>
  4021b6:	89 43 04             	mov    %eax,0x4(%rbx)
  4021b9:	85 c0                	test   %eax,%eax
  4021bb:	79 0c                	jns    4021c9 <rio_read+0x3b>
  4021bd:	e8 7e ea ff ff       	callq  400c40 <__errno_location@plt>
  4021c2:	83 38 04             	cmpl   $0x4,(%rax)
  4021c5:	74 0a                	je     4021d1 <rio_read+0x43>
  4021c7:	eb 37                	jmp    402200 <rio_read+0x72>
  4021c9:	85 c0                	test   %eax,%eax
  4021cb:	74 3c                	je     402209 <rio_read+0x7b>
  4021cd:	48 89 6b 08          	mov    %rbp,0x8(%rbx)
  4021d1:	8b 6b 04             	mov    0x4(%rbx),%ebp
  4021d4:	85 ed                	test   %ebp,%ebp
  4021d6:	7e cb                	jle    4021a3 <rio_read+0x15>
  4021d8:	89 e8                	mov    %ebp,%eax
  4021da:	49 39 c4             	cmp    %rax,%r12
  4021dd:	77 03                	ja     4021e2 <rio_read+0x54>
  4021df:	44 89 e5             	mov    %r12d,%ebp
  4021e2:	4c 63 e5             	movslq %ebp,%r12
  4021e5:	48 8b 73 08          	mov    0x8(%rbx),%rsi
  4021e9:	4c 89 e2             	mov    %r12,%rdx
  4021ec:	4c 89 ef             	mov    %r13,%rdi
  4021ef:	e8 5c eb ff ff       	callq  400d50 <memcpy@plt>
  4021f4:	4c 01 63 08          	add    %r12,0x8(%rbx)
  4021f8:	29 6b 04             	sub    %ebp,0x4(%rbx)
  4021fb:	4c 89 e0             	mov    %r12,%rax
  4021fe:	eb 0e                	jmp    40220e <rio_read+0x80>
  402200:	48 c7 c0 ff ff ff ff 	mov    $0xffffffffffffffff,%rax
  402207:	eb 05                	jmp    40220e <rio_read+0x80>
  402209:	b8 00 00 00 00       	mov    $0x0,%eax
  40220e:	48 83 c4 08          	add    $0x8,%rsp
  402212:	5b                   	pop    %rbx
  402213:	5d                   	pop    %rbp
  402214:	41 5c                	pop    %r12
  402216:	41 5d                	pop    %r13
  402218:	c3                   	retq   

0000000000402219 <rio_readlineb>:
  402219:	41 55                	push   %r13
  40221b:	41 54                	push   %r12
  40221d:	55                   	push   %rbp
  40221e:	53                   	push   %rbx
  40221f:	48 83 ec 18          	sub    $0x18,%rsp
  402223:	49 89 fd             	mov    %rdi,%r13
  402226:	48 89 f5             	mov    %rsi,%rbp
  402229:	49 89 d4             	mov    %rdx,%r12
  40222c:	64 48 8b 04 25 28 00 	mov    %fs:0x28,%rax
  402233:	00 00 
  402235:	48 89 44 24 08       	mov    %rax,0x8(%rsp)
  40223a:	31 c0                	xor    %eax,%eax
  40223c:	bb 01 00 00 00       	mov    $0x1,%ebx
  402241:	eb 3f                	jmp    402282 <rio_readlineb+0x69>
  402243:	ba 01 00 00 00       	mov    $0x1,%edx
  402248:	48 8d 74 24 07       	lea    0x7(%rsp),%rsi
  40224d:	4c 89 ef             	mov    %r13,%rdi
  402250:	e8 39 ff ff ff       	callq  40218e <rio_read>
  402255:	83 f8 01             	cmp    $0x1,%eax
  402258:	75 15                	jne    40226f <rio_readlineb+0x56>
  40225a:	48 8d 45 01          	lea    0x1(%rbp),%rax
  40225e:	0f b6 54 24 07       	movzbl 0x7(%rsp),%edx
  402263:	88 55 00             	mov    %dl,0x0(%rbp)
  402266:	80 7c 24 07 0a       	cmpb   $0xa,0x7(%rsp)
  40226b:	75 0e                	jne    40227b <rio_readlineb+0x62>
  40226d:	eb 1a                	jmp    402289 <rio_readlineb+0x70>
  40226f:	85 c0                	test   %eax,%eax
  402271:	75 22                	jne    402295 <rio_readlineb+0x7c>
  402273:	48 83 fb 01          	cmp    $0x1,%rbx
  402277:	75 13                	jne    40228c <rio_readlineb+0x73>
  402279:	eb 23                	jmp    40229e <rio_readlineb+0x85>
  40227b:	48 83 c3 01          	add    $0x1,%rbx
  40227f:	48 89 c5             	mov    %rax,%rbp
  402282:	4c 39 e3             	cmp    %r12,%rbx
  402285:	72 bc                	jb     402243 <rio_readlineb+0x2a>
  402287:	eb 03                	jmp    40228c <rio_readlineb+0x73>
  402289:	48 89 c5             	mov    %rax,%rbp
  40228c:	c6 45 00 00          	movb   $0x0,0x0(%rbp)
  402290:	48 89 d8             	mov    %rbx,%rax
  402293:	eb 0e                	jmp    4022a3 <rio_readlineb+0x8a>
  402295:	48 c7 c0 ff ff ff ff 	mov    $0xffffffffffffffff,%rax
  40229c:	eb 05                	jmp    4022a3 <rio_readlineb+0x8a>
  40229e:	b8 00 00 00 00       	mov    $0x0,%eax
  4022a3:	48 8b 4c 24 08       	mov    0x8(%rsp),%rcx
  4022a8:	64 48 33 0c 25 28 00 	xor    %fs:0x28,%rcx
  4022af:	00 00 
  4022b1:	74 05                	je     4022b8 <rio_readlineb+0x9f>
  4022b3:	e8 e8 e9 ff ff       	callq  400ca0 <__stack_chk_fail@plt>
  4022b8:	48 83 c4 18          	add    $0x18,%rsp
  4022bc:	5b                   	pop    %rbx
  4022bd:	5d                   	pop    %rbp
  4022be:	41 5c                	pop    %r12
  4022c0:	41 5d                	pop    %r13
  4022c2:	c3                   	retq   

00000000004022c3 <urlencode>:
  4022c3:	41 54                	push   %r12
  4022c5:	55                   	push   %rbp
  4022c6:	53                   	push   %rbx
  4022c7:	48 83 ec 10          	sub    $0x10,%rsp
  4022cb:	48 89 fb             	mov    %rdi,%rbx
  4022ce:	48 89 f5             	mov    %rsi,%rbp
  4022d1:	64 48 8b 04 25 28 00 	mov    %fs:0x28,%rax
  4022d8:	00 00 
  4022da:	48 89 44 24 08       	mov    %rax,0x8(%rsp)
  4022df:	31 c0                	xor    %eax,%eax
  4022e1:	48 c7 c1 ff ff ff ff 	mov    $0xffffffffffffffff,%rcx
  4022e8:	f2 ae                	repnz scas %es:(%rdi),%al
  4022ea:	48 f7 d1             	not    %rcx
  4022ed:	8d 41 ff             	lea    -0x1(%rcx),%eax
  4022f0:	e9 aa 00 00 00       	jmpq   40239f <urlencode+0xdc>
  4022f5:	44 0f b6 03          	movzbl (%rbx),%r8d
  4022f9:	41 80 f8 2a          	cmp    $0x2a,%r8b
  4022fd:	0f 94 c2             	sete   %dl
  402300:	41 80 f8 2d          	cmp    $0x2d,%r8b
  402304:	0f 94 c0             	sete   %al
  402307:	08 c2                	or     %al,%dl
  402309:	75 24                	jne    40232f <urlencode+0x6c>
  40230b:	41 80 f8 2e          	cmp    $0x2e,%r8b
  40230f:	74 1e                	je     40232f <urlencode+0x6c>
  402311:	41 80 f8 5f          	cmp    $0x5f,%r8b
  402315:	74 18                	je     40232f <urlencode+0x6c>
  402317:	41 8d 40 d0          	lea    -0x30(%r8),%eax
  40231b:	3c 09                	cmp    $0x9,%al
  40231d:	76 10                	jbe    40232f <urlencode+0x6c>
  40231f:	41 8d 40 bf          	lea    -0x41(%r8),%eax
  402323:	3c 19                	cmp    $0x19,%al
  402325:	76 08                	jbe    40232f <urlencode+0x6c>
  402327:	41 8d 40 9f          	lea    -0x61(%r8),%eax
  40232b:	3c 19                	cmp    $0x19,%al
  40232d:	77 0a                	ja     402339 <urlencode+0x76>
  40232f:	44 88 45 00          	mov    %r8b,0x0(%rbp)
  402333:	48 8d 6d 01          	lea    0x1(%rbp),%rbp
  402337:	eb 5f                	jmp    402398 <urlencode+0xd5>
  402339:	41 80 f8 20          	cmp    $0x20,%r8b
  40233d:	75 0a                	jne    402349 <urlencode+0x86>
  40233f:	c6 45 00 2b          	movb   $0x2b,0x0(%rbp)
  402343:	48 8d 6d 01          	lea    0x1(%rbp),%rbp
  402347:	eb 4f                	jmp    402398 <urlencode+0xd5>
  402349:	41 8d 40 e0          	lea    -0x20(%r8),%eax
  40234d:	3c 5f                	cmp    $0x5f,%al
  40234f:	0f 96 c2             	setbe  %dl
  402352:	41 80 f8 09          	cmp    $0x9,%r8b
  402356:	0f 94 c0             	sete   %al
  402359:	08 c2                	or     %al,%dl
  40235b:	74 50                	je     4023ad <urlencode+0xea>
  40235d:	45 0f b6 c0          	movzbl %r8b,%r8d
  402361:	b9 38 36 40 00       	mov    $0x403638,%ecx
  402366:	ba 08 00 00 00       	mov    $0x8,%edx
  40236b:	be 01 00 00 00       	mov    $0x1,%esi
  402370:	48 89 e7             	mov    %rsp,%rdi
  402373:	b8 00 00 00 00       	mov    $0x0,%eax
  402378:	e8 b3 ea ff ff       	callq  400e30 <__sprintf_chk@plt>
  40237d:	0f b6 04 24          	movzbl (%rsp),%eax
  402381:	88 45 00             	mov    %al,0x0(%rbp)
  402384:	0f b6 44 24 01       	movzbl 0x1(%rsp),%eax
  402389:	88 45 01             	mov    %al,0x1(%rbp)
  40238c:	0f b6 44 24 02       	movzbl 0x2(%rsp),%eax
  402391:	88 45 02             	mov    %al,0x2(%rbp)
  402394:	48 8d 6d 03          	lea    0x3(%rbp),%rbp
  402398:	48 83 c3 01          	add    $0x1,%rbx
  40239c:	44 89 e0             	mov    %r12d,%eax
  40239f:	44 8d 60 ff          	lea    -0x1(%rax),%r12d
  4023a3:	85 c0                	test   %eax,%eax
  4023a5:	0f 85 4a ff ff ff    	jne    4022f5 <urlencode+0x32>
  4023ab:	eb 05                	jmp    4023b2 <urlencode+0xef>
  4023ad:	b8 ff ff ff ff       	mov    $0xffffffff,%eax
  4023b2:	48 8b 74 24 08       	mov    0x8(%rsp),%rsi
  4023b7:	64 48 33 34 25 28 00 	xor    %fs:0x28,%rsi
  4023be:	00 00 
  4023c0:	74 05                	je     4023c7 <urlencode+0x104>
  4023c2:	e8 d9 e8 ff ff       	callq  400ca0 <__stack_chk_fail@plt>
  4023c7:	48 83 c4 10          	add    $0x10,%rsp
  4023cb:	5b                   	pop    %rbx
  4023cc:	5d                   	pop    %rbp
  4023cd:	41 5c                	pop    %r12
  4023cf:	c3                   	retq   

00000000004023d0 <submitr>:
  4023d0:	41 57                	push   %r15
  4023d2:	41 56                	push   %r14
  4023d4:	41 55                	push   %r13
  4023d6:	41 54                	push   %r12
  4023d8:	55                   	push   %rbp
  4023d9:	53                   	push   %rbx
  4023da:	48 81 ec 58 a0 00 00 	sub    $0xa058,%rsp
  4023e1:	49 89 fc             	mov    %rdi,%r12
  4023e4:	89 74 24 04          	mov    %esi,0x4(%rsp)
  4023e8:	49 89 d7             	mov    %rdx,%r15
  4023eb:	49 89 ce             	mov    %rcx,%r14
  4023ee:	4c 89 44 24 08       	mov    %r8,0x8(%rsp)
  4023f3:	4d 89 cd             	mov    %r9,%r13
  4023f6:	48 8b 9c 24 90 a0 00 	mov    0xa090(%rsp),%rbx
  4023fd:	00 
  4023fe:	64 48 8b 04 25 28 00 	mov    %fs:0x28,%rax
  402405:	00 00 
  402407:	48 89 84 24 48 a0 00 	mov    %rax,0xa048(%rsp)
  40240e:	00 
  40240f:	31 c0                	xor    %eax,%eax
  402411:	c7 44 24 1c 00 00 00 	movl   $0x0,0x1c(%rsp)
  402418:	00 
  402419:	ba 00 00 00 00       	mov    $0x0,%edx
  40241e:	be 01 00 00 00       	mov    $0x1,%esi
  402423:	bf 02 00 00 00       	mov    $0x2,%edi
  402428:	e8 13 ea ff ff       	callq  400e40 <socket@plt>
  40242d:	85 c0                	test   %eax,%eax
  40242f:	79 4e                	jns    40247f <submitr+0xaf>
  402431:	48 b8 45 72 72 6f 72 	movabs $0x43203a726f727245,%rax
  402438:	3a 20 43 
  40243b:	48 89 03             	mov    %rax,(%rbx)
  40243e:	48 b8 6c 69 65 6e 74 	movabs $0x6e7520746e65696c,%rax
  402445:	20 75 6e 
  402448:	48 89 43 08          	mov    %rax,0x8(%rbx)
  40244c:	48 b8 61 62 6c 65 20 	movabs $0x206f7420656c6261,%rax
  402453:	74 6f 20 
  402456:	48 89 43 10          	mov    %rax,0x10(%rbx)
  40245a:	48 b8 63 72 65 61 74 	movabs $0x7320657461657263,%rax
  402461:	65 20 73 
  402464:	48 89 43 18          	mov    %rax,0x18(%rbx)
  402468:	c7 43 20 6f 63 6b 65 	movl   $0x656b636f,0x20(%rbx)
  40246f:	66 c7 43 24 74 00    	movw   $0x74,0x24(%rbx)
  402475:	b8 ff ff ff ff       	mov    $0xffffffff,%eax
  40247a:	e9 97 06 00 00       	jmpq   402b16 <submitr+0x746>
  40247f:	89 c5                	mov    %eax,%ebp
  402481:	4c 89 e7             	mov    %r12,%rdi
  402484:	e8 97 e8 ff ff       	callq  400d20 <gethostbyname@plt>
  402489:	48 85 c0             	test   %rax,%rax
  40248c:	75 67                	jne    4024f5 <submitr+0x125>
  40248e:	48 b8 45 72 72 6f 72 	movabs $0x44203a726f727245,%rax
  402495:	3a 20 44 
  402498:	48 89 03             	mov    %rax,(%rbx)
  40249b:	48 b8 4e 53 20 69 73 	movabs $0x6e7520736920534e,%rax
  4024a2:	20 75 6e 
  4024a5:	48 89 43 08          	mov    %rax,0x8(%rbx)
  4024a9:	48 b8 61 62 6c 65 20 	movabs $0x206f7420656c6261,%rax
  4024b0:	74 6f 20 
  4024b3:	48 89 43 10          	mov    %rax,0x10(%rbx)
  4024b7:	48 b8 72 65 73 6f 6c 	movabs $0x2065766c6f736572,%rax
  4024be:	76 65 20 
  4024c1:	48 89 43 18          	mov    %rax,0x18(%rbx)
  4024c5:	48 b8 73 65 72 76 65 	movabs $0x6120726576726573,%rax
  4024cc:	72 20 61 
  4024cf:	48 89 43 20          	mov    %rax,0x20(%rbx)
  4024d3:	c7 43 28 64 64 72 65 	movl   $0x65726464,0x28(%rbx)
  4024da:	66 c7 43 2c 73 73    	movw   $0x7373,0x2c(%rbx)
  4024e0:	c6 43 2e 00          	movb   $0x0,0x2e(%rbx)
  4024e4:	89 ef                	mov    %ebp,%edi
  4024e6:	e8 f5 e7 ff ff       	callq  400ce0 <close@plt>
  4024eb:	b8 ff ff ff ff       	mov    $0xffffffff,%eax
  4024f0:	e9 21 06 00 00       	jmpq   402b16 <submitr+0x746>
  4024f5:	48 c7 44 24 20 00 00 	movq   $0x0,0x20(%rsp)
  4024fc:	00 00 
  4024fe:	48 c7 44 24 28 00 00 	movq   $0x0,0x28(%rsp)
  402505:	00 00 
  402507:	66 c7 44 24 20 02 00 	movw   $0x2,0x20(%rsp)
  40250e:	48 63 50 14          	movslq 0x14(%rax),%rdx
  402512:	48 8b 40 18          	mov    0x18(%rax),%rax
  402516:	48 8b 30             	mov    (%rax),%rsi
  402519:	48 8d 7c 24 24       	lea    0x24(%rsp),%rdi
  40251e:	b9 0c 00 00 00       	mov    $0xc,%ecx
  402523:	e8 08 e8 ff ff       	callq  400d30 <__memmove_chk@plt>
  402528:	0f b7 44 24 04       	movzwl 0x4(%rsp),%eax
  40252d:	66 c1 c8 08          	ror    $0x8,%ax
  402531:	66 89 44 24 22       	mov    %ax,0x22(%rsp)
  402536:	ba 10 00 00 00       	mov    $0x10,%edx
  40253b:	48 8d 74 24 20       	lea    0x20(%rsp),%rsi
  402540:	89 ef                	mov    %ebp,%edi
  402542:	e8 c9 e8 ff ff       	callq  400e10 <connect@plt>
  402547:	85 c0                	test   %eax,%eax
  402549:	79 59                	jns    4025a4 <submitr+0x1d4>
  40254b:	48 b8 45 72 72 6f 72 	movabs $0x55203a726f727245,%rax
  402552:	3a 20 55 
  402555:	48 89 03             	mov    %rax,(%rbx)
  402558:	48 b8 6e 61 62 6c 65 	movabs $0x6f7420656c62616e,%rax
  40255f:	20 74 6f 
  402562:	48 89 43 08          	mov    %rax,0x8(%rbx)
  402566:	48 b8 20 63 6f 6e 6e 	movabs $0x7463656e6e6f6320,%rax
  40256d:	65 63 74 
  402570:	48 89 43 10          	mov    %rax,0x10(%rbx)
  402574:	48 b8 20 74 6f 20 74 	movabs $0x20656874206f7420,%rax
  40257b:	68 65 20 
  40257e:	48 89 43 18          	mov    %rax,0x18(%rbx)
  402582:	c7 43 20 73 65 72 76 	movl   $0x76726573,0x20(%rbx)
  402589:	66 c7 43 24 65 72    	movw   $0x7265,0x24(%rbx)
  40258f:	c6 43 26 00          	movb   $0x0,0x26(%rbx)
  402593:	89 ef                	mov    %ebp,%edi
  402595:	e8 46 e7 ff ff       	callq  400ce0 <close@plt>
  40259a:	b8 ff ff ff ff       	mov    $0xffffffff,%eax
  40259f:	e9 72 05 00 00       	jmpq   402b16 <submitr+0x746>
  4025a4:	48 c7 c6 ff ff ff ff 	mov    $0xffffffffffffffff,%rsi
  4025ab:	b8 00 00 00 00       	mov    $0x0,%eax
  4025b0:	48 89 f1             	mov    %rsi,%rcx
  4025b3:	4c 89 ef             	mov    %r13,%rdi
  4025b6:	f2 ae                	repnz scas %es:(%rdi),%al
  4025b8:	48 f7 d1             	not    %rcx
  4025bb:	48 89 ca             	mov    %rcx,%rdx
  4025be:	48 89 f1             	mov    %rsi,%rcx
  4025c1:	4c 89 ff             	mov    %r15,%rdi
  4025c4:	f2 ae                	repnz scas %es:(%rdi),%al
  4025c6:	48 f7 d1             	not    %rcx
  4025c9:	49 89 c8             	mov    %rcx,%r8
  4025cc:	48 89 f1             	mov    %rsi,%rcx
  4025cf:	4c 89 f7             	mov    %r14,%rdi
  4025d2:	f2 ae                	repnz scas %es:(%rdi),%al
  4025d4:	48 f7 d1             	not    %rcx
  4025d7:	4d 8d 44 08 fe       	lea    -0x2(%r8,%rcx,1),%r8
  4025dc:	48 89 f1             	mov    %rsi,%rcx
  4025df:	48 8b 7c 24 08       	mov    0x8(%rsp),%rdi
  4025e4:	f2 ae                	repnz scas %es:(%rdi),%al
  4025e6:	48 89 c8             	mov    %rcx,%rax
  4025e9:	48 f7 d0             	not    %rax
  4025ec:	49 8d 4c 00 ff       	lea    -0x1(%r8,%rax,1),%rcx
  4025f1:	48 8d 44 52 fd       	lea    -0x3(%rdx,%rdx,2),%rax
  4025f6:	48 8d 84 01 80 00 00 	lea    0x80(%rcx,%rax,1),%rax
  4025fd:	00 
  4025fe:	48 3d 00 20 00 00    	cmp    $0x2000,%rax
  402604:	76 72                	jbe    402678 <submitr+0x2a8>
  402606:	48 b8 45 72 72 6f 72 	movabs $0x52203a726f727245,%rax
  40260d:	3a 20 52 
  402610:	48 89 03             	mov    %rax,(%rbx)
  402613:	48 b8 65 73 75 6c 74 	movabs $0x747320746c757365,%rax
  40261a:	20 73 74 
  40261d:	48 89 43 08          	mov    %rax,0x8(%rbx)
  402621:	48 b8 72 69 6e 67 20 	movabs $0x6f6f7420676e6972,%rax
  402628:	74 6f 6f 
  40262b:	48 89 43 10          	mov    %rax,0x10(%rbx)
  40262f:	48 b8 20 6c 61 72 67 	movabs $0x202e656772616c20,%rax
  402636:	65 2e 20 
  402639:	48 89 43 18          	mov    %rax,0x18(%rbx)
  40263d:	48 b8 49 6e 63 72 65 	movabs $0x6573616572636e49,%rax
  402644:	61 73 65 
  402647:	48 89 43 20          	mov    %rax,0x20(%rbx)
  40264b:	48 b8 20 53 55 42 4d 	movabs $0x5254494d42555320,%rax
  402652:	49 54 52 
  402655:	48 89 43 28          	mov    %rax,0x28(%rbx)
  402659:	48 b8 5f 4d 41 58 42 	movabs $0x46554258414d5f,%rax
  402660:	55 46 00 
  402663:	48 89 43 30          	mov    %rax,0x30(%rbx)
  402667:	89 ef                	mov    %ebp,%edi
  402669:	e8 72 e6 ff ff       	callq  400ce0 <close@plt>
  40266e:	b8 ff ff ff ff       	mov    $0xffffffff,%eax
  402673:	e9 9e 04 00 00       	jmpq   402b16 <submitr+0x746>
  402678:	48 8d b4 24 40 40 00 	lea    0x4040(%rsp),%rsi
  40267f:	00 
  402680:	b9 00 04 00 00       	mov    $0x400,%ecx
  402685:	b8 00 00 00 00       	mov    $0x0,%eax
  40268a:	48 89 f7             	mov    %rsi,%rdi
  40268d:	f3 48 ab             	rep stos %rax,%es:(%rdi)
  402690:	4c 89 ef             	mov    %r13,%rdi
  402693:	e8 2b fc ff ff       	callq  4022c3 <urlencode>
  402698:	85 c0                	test   %eax,%eax
  40269a:	0f 89 8a 00 00 00    	jns    40272a <submitr+0x35a>
  4026a0:	48 b8 45 72 72 6f 72 	movabs $0x52203a726f727245,%rax
  4026a7:	3a 20 52 
  4026aa:	48 89 03             	mov    %rax,(%rbx)
  4026ad:	48 b8 65 73 75 6c 74 	movabs $0x747320746c757365,%rax
  4026b4:	20 73 74 
  4026b7:	48 89 43 08          	mov    %rax,0x8(%rbx)
  4026bb:	48 b8 72 69 6e 67 20 	movabs $0x6e6f6320676e6972,%rax
  4026c2:	63 6f 6e 
  4026c5:	48 89 43 10          	mov    %rax,0x10(%rbx)
  4026c9:	48 b8 74 61 69 6e 73 	movabs $0x6e6120736e696174,%rax
  4026d0:	20 61 6e 
  4026d3:	48 89 43 18          	mov    %rax,0x18(%rbx)
  4026d7:	48 b8 20 69 6c 6c 65 	movabs $0x6c6167656c6c6920,%rax
  4026de:	67 61 6c 
  4026e1:	48 89 43 20          	mov    %rax,0x20(%rbx)
  4026e5:	48 b8 20 6f 72 20 75 	movabs $0x72706e7520726f20,%rax
  4026ec:	6e 70 72 
  4026ef:	48 89 43 28          	mov    %rax,0x28(%rbx)
  4026f3:	48 b8 69 6e 74 61 62 	movabs $0x20656c6261746e69,%rax
  4026fa:	6c 65 20 
  4026fd:	48 89 43 30          	mov    %rax,0x30(%rbx)
  402701:	48 b8 63 68 61 72 61 	movabs $0x6574636172616863,%rax
  402708:	63 74 65 
  40270b:	48 89 43 38          	mov    %rax,0x38(%rbx)
  40270f:	66 c7 43 40 72 2e    	movw   $0x2e72,0x40(%rbx)
  402715:	c6 43 42 00          	movb   $0x0,0x42(%rbx)
  402719:	89 ef                	mov    %ebp,%edi
  40271b:	e8 c0 e5 ff ff       	callq  400ce0 <close@plt>
  402720:	b8 ff ff ff ff       	mov    $0xffffffff,%eax
  402725:	e9 ec 03 00 00       	jmpq   402b16 <submitr+0x746>
  40272a:	4c 8d ac 24 40 20 00 	lea    0x2040(%rsp),%r13
  402731:	00 
  402732:	41 54                	push   %r12
  402734:	48 8d 84 24 48 40 00 	lea    0x4048(%rsp),%rax
  40273b:	00 
  40273c:	50                   	push   %rax
  40273d:	4d 89 f9             	mov    %r15,%r9
  402740:	4d 89 f0             	mov    %r14,%r8
  402743:	b9 c8 35 40 00       	mov    $0x4035c8,%ecx
  402748:	ba 00 20 00 00       	mov    $0x2000,%edx
  40274d:	be 01 00 00 00       	mov    $0x1,%esi
  402752:	4c 89 ef             	mov    %r13,%rdi
  402755:	b8 00 00 00 00       	mov    $0x0,%eax
  40275a:	e8 d1 e6 ff ff       	callq  400e30 <__sprintf_chk@plt>
  40275f:	b8 00 00 00 00       	mov    $0x0,%eax
  402764:	48 c7 c1 ff ff ff ff 	mov    $0xffffffffffffffff,%rcx
  40276b:	4c 89 ef             	mov    %r13,%rdi
  40276e:	f2 ae                	repnz scas %es:(%rdi),%al
  402770:	48 f7 d1             	not    %rcx
  402773:	48 8d 51 ff          	lea    -0x1(%rcx),%rdx
  402777:	4c 89 ee             	mov    %r13,%rsi
  40277a:	89 ef                	mov    %ebp,%edi
  40277c:	e8 b1 f9 ff ff       	callq  402132 <rio_writen>
  402781:	48 83 c4 10          	add    $0x10,%rsp
  402785:	48 85 c0             	test   %rax,%rax
  402788:	79 6e                	jns    4027f8 <submitr+0x428>
  40278a:	48 b8 45 72 72 6f 72 	movabs $0x43203a726f727245,%rax
  402791:	3a 20 43 
  402794:	48 89 03             	mov    %rax,(%rbx)
  402797:	48 b8 6c 69 65 6e 74 	movabs $0x6e7520746e65696c,%rax
  40279e:	20 75 6e 
  4027a1:	48 89 43 08          	mov    %rax,0x8(%rbx)
  4027a5:	48 b8 61 62 6c 65 20 	movabs $0x206f7420656c6261,%rax
  4027ac:	74 6f 20 
  4027af:	48 89 43 10          	mov    %rax,0x10(%rbx)
  4027b3:	48 b8 77 72 69 74 65 	movabs $0x6f74206574697277,%rax
  4027ba:	20 74 6f 
  4027bd:	48 89 43 18          	mov    %rax,0x18(%rbx)
  4027c1:	48 b8 20 74 68 65 20 	movabs $0x7365722065687420,%rax
  4027c8:	72 65 73 
  4027cb:	48 89 43 20          	mov    %rax,0x20(%rbx)
  4027cf:	48 b8 75 6c 74 20 73 	movabs $0x7672657320746c75,%rax
  4027d6:	65 72 76 
  4027d9:	48 89 43 28          	mov    %rax,0x28(%rbx)
  4027dd:	66 c7 43 30 65 72    	movw   $0x7265,0x30(%rbx)
  4027e3:	c6 43 32 00          	movb   $0x0,0x32(%rbx)
  4027e7:	89 ef                	mov    %ebp,%edi
  4027e9:	e8 f2 e4 ff ff       	callq  400ce0 <close@plt>
  4027ee:	b8 ff ff ff ff       	mov    $0xffffffff,%eax
  4027f3:	e9 1e 03 00 00       	jmpq   402b16 <submitr+0x746>
  4027f8:	89 ee                	mov    %ebp,%esi
  4027fa:	48 8d 7c 24 30       	lea    0x30(%rsp),%rdi
  4027ff:	e8 ee f8 ff ff       	callq  4020f2 <rio_readinitb>
  402804:	ba 00 20 00 00       	mov    $0x2000,%edx
  402809:	48 8d b4 24 40 20 00 	lea    0x2040(%rsp),%rsi
  402810:	00 
  402811:	48 8d 7c 24 30       	lea    0x30(%rsp),%rdi
  402816:	e8 fe f9 ff ff       	callq  402219 <rio_readlineb>
  40281b:	48 85 c0             	test   %rax,%rax
  40281e:	7f 7d                	jg     40289d <submitr+0x4cd>
  402820:	48 b8 45 72 72 6f 72 	movabs $0x43203a726f727245,%rax
  402827:	3a 20 43 
  40282a:	48 89 03             	mov    %rax,(%rbx)
  40282d:	48 b8 6c 69 65 6e 74 	movabs $0x6e7520746e65696c,%rax
  402834:	20 75 6e 
  402837:	48 89 43 08          	mov    %rax,0x8(%rbx)
  40283b:	48 b8 61 62 6c 65 20 	movabs $0x206f7420656c6261,%rax
  402842:	74 6f 20 
  402845:	48 89 43 10          	mov    %rax,0x10(%rbx)
  402849:	48 b8 72 65 61 64 20 	movabs $0x7269662064616572,%rax
  402850:	66 69 72 
  402853:	48 89 43 18          	mov    %rax,0x18(%rbx)
  402857:	48 b8 73 74 20 68 65 	movabs $0x6564616568207473,%rax
  40285e:	61 64 65 
  402861:	48 89 43 20          	mov    %rax,0x20(%rbx)
  402865:	48 b8 72 20 66 72 6f 	movabs $0x72206d6f72662072,%rax
  40286c:	6d 20 72 
  40286f:	48 89 43 28          	mov    %rax,0x28(%rbx)
  402873:	48 b8 65 73 75 6c 74 	movabs $0x657320746c757365,%rax
  40287a:	20 73 65 
  40287d:	48 89 43 30          	mov    %rax,0x30(%rbx)
  402881:	c7 43 38 72 76 65 72 	movl   $0x72657672,0x38(%rbx)
  402888:	c6 43 3c 00          	movb   $0x0,0x3c(%rbx)
  40288c:	89 ef                	mov    %ebp,%edi
  40288e:	e8 4d e4 ff ff       	callq  400ce0 <close@plt>
  402893:	b8 ff ff ff ff       	mov    $0xffffffff,%eax
  402898:	e9 79 02 00 00       	jmpq   402b16 <submitr+0x746>
  40289d:	4c 8d 84 24 40 80 00 	lea    0x8040(%rsp),%r8
  4028a4:	00 
  4028a5:	48 8d 4c 24 1c       	lea    0x1c(%rsp),%rcx
  4028aa:	48 8d 94 24 40 60 00 	lea    0x6040(%rsp),%rdx
  4028b1:	00 
  4028b2:	be 3f 36 40 00       	mov    $0x40363f,%esi
  4028b7:	48 8d bc 24 40 20 00 	lea    0x2040(%rsp),%rdi
  4028be:	00 
  4028bf:	b8 00 00 00 00       	mov    $0x0,%eax
  4028c4:	e8 c7 e4 ff ff       	callq  400d90 <__isoc99_sscanf@plt>
  4028c9:	e9 95 00 00 00       	jmpq   402963 <submitr+0x593>
  4028ce:	ba 00 20 00 00       	mov    $0x2000,%edx
  4028d3:	48 8d b4 24 40 20 00 	lea    0x2040(%rsp),%rsi
  4028da:	00 
  4028db:	48 8d 7c 24 30       	lea    0x30(%rsp),%rdi
  4028e0:	e8 34 f9 ff ff       	callq  402219 <rio_readlineb>
  4028e5:	48 85 c0             	test   %rax,%rax
  4028e8:	7f 79                	jg     402963 <submitr+0x593>
  4028ea:	48 b8 45 72 72 6f 72 	movabs $0x43203a726f727245,%rax
  4028f1:	3a 20 43 
  4028f4:	48 89 03             	mov    %rax,(%rbx)
  4028f7:	48 b8 6c 69 65 6e 74 	movabs $0x6e7520746e65696c,%rax
  4028fe:	20 75 6e 
  402901:	48 89 43 08          	mov    %rax,0x8(%rbx)
  402905:	48 b8 61 62 6c 65 20 	movabs $0x206f7420656c6261,%rax
  40290c:	74 6f 20 
  40290f:	48 89 43 10          	mov    %rax,0x10(%rbx)
  402913:	48 b8 72 65 61 64 20 	movabs $0x6165682064616572,%rax
  40291a:	68 65 61 
  40291d:	48 89 43 18          	mov    %rax,0x18(%rbx)
  402921:	48 b8 64 65 72 73 20 	movabs $0x6f72662073726564,%rax
  402928:	66 72 6f 
  40292b:	48 89 43 20          	mov    %rax,0x20(%rbx)
  40292f:	48 b8 6d 20 74 68 65 	movabs $0x657220656874206d,%rax
  402936:	20 72 65 
  402939:	48 89 43 28          	mov    %rax,0x28(%rbx)
  40293d:	48 b8 73 75 6c 74 20 	movabs $0x72657320746c7573,%rax
  402944:	73 65 72 
  402947:	48 89 43 30          	mov    %rax,0x30(%rbx)
  40294b:	c7 43 38 76 65 72 00 	movl   $0x726576,0x38(%rbx)
  402952:	89 ef                	mov    %ebp,%edi
  402954:	e8 87 e3 ff ff       	callq  400ce0 <close@plt>
  402959:	b8 ff ff ff ff       	mov    $0xffffffff,%eax
  40295e:	e9 b3 01 00 00       	jmpq   402b16 <submitr+0x746>
  402963:	0f b6 94 24 40 20 00 	movzbl 0x2040(%rsp),%edx
  40296a:	00 
  40296b:	b8 0d 00 00 00       	mov    $0xd,%eax
  402970:	29 d0                	sub    %edx,%eax
  402972:	75 1b                	jne    40298f <submitr+0x5bf>
  402974:	0f b6 94 24 41 20 00 	movzbl 0x2041(%rsp),%edx
  40297b:	00 
  40297c:	b8 0a 00 00 00       	mov    $0xa,%eax
  402981:	29 d0                	sub    %edx,%eax
  402983:	75 0a                	jne    40298f <submitr+0x5bf>
  402985:	0f b6 84 24 42 20 00 	movzbl 0x2042(%rsp),%eax
  40298c:	00 
  40298d:	f7 d8                	neg    %eax
  40298f:	85 c0                	test   %eax,%eax
  402991:	0f 85 37 ff ff ff    	jne    4028ce <submitr+0x4fe>
  402997:	ba 00 20 00 00       	mov    $0x2000,%edx
  40299c:	48 8d b4 24 40 20 00 	lea    0x2040(%rsp),%rsi
  4029a3:	00 
  4029a4:	48 8d 7c 24 30       	lea    0x30(%rsp),%rdi
  4029a9:	e8 6b f8 ff ff       	callq  402219 <rio_readlineb>
  4029ae:	48 85 c0             	test   %rax,%rax
  4029b1:	0f 8f 83 00 00 00    	jg     402a3a <submitr+0x66a>
  4029b7:	48 b8 45 72 72 6f 72 	movabs $0x43203a726f727245,%rax
  4029be:	3a 20 43 
  4029c1:	48 89 03             	mov    %rax,(%rbx)
  4029c4:	48 b8 6c 69 65 6e 74 	movabs $0x6e7520746e65696c,%rax
  4029cb:	20 75 6e 
  4029ce:	48 89 43 08          	mov    %rax,0x8(%rbx)
  4029d2:	48 b8 61 62 6c 65 20 	movabs $0x206f7420656c6261,%rax
  4029d9:	74 6f 20 
  4029dc:	48 89 43 10          	mov    %rax,0x10(%rbx)
  4029e0:	48 b8 72 65 61 64 20 	movabs $0x6174732064616572,%rax
  4029e7:	73 74 61 
  4029ea:	48 89 43 18          	mov    %rax,0x18(%rbx)
  4029ee:	48 b8 74 75 73 20 6d 	movabs $0x7373656d20737574,%rax
  4029f5:	65 73 73 
  4029f8:	48 89 43 20          	mov    %rax,0x20(%rbx)
  4029fc:	48 b8 61 67 65 20 66 	movabs $0x6d6f726620656761,%rax
  402a03:	72 6f 6d 
  402a06:	48 89 43 28          	mov    %rax,0x28(%rbx)
  402a0a:	48 b8 20 72 65 73 75 	movabs $0x20746c7573657220,%rax
  402a11:	6c 74 20 
  402a14:	48 89 43 30          	mov    %rax,0x30(%rbx)
  402a18:	c7 43 38 73 65 72 76 	movl   $0x76726573,0x38(%rbx)
  402a1f:	66 c7 43 3c 65 72    	movw   $0x7265,0x3c(%rbx)
  402a25:	c6 43 3e 00          	movb   $0x0,0x3e(%rbx)
  402a29:	89 ef                	mov    %ebp,%edi
  402a2b:	e8 b0 e2 ff ff       	callq  400ce0 <close@plt>
  402a30:	b8 ff ff ff ff       	mov    $0xffffffff,%eax
  402a35:	e9 dc 00 00 00       	jmpq   402b16 <submitr+0x746>
  402a3a:	44 8b 44 24 1c       	mov    0x1c(%rsp),%r8d
  402a3f:	41 81 f8 c8 00 00 00 	cmp    $0xc8,%r8d
  402a46:	74 37                	je     402a7f <submitr+0x6af>
  402a48:	4c 8d 8c 24 40 80 00 	lea    0x8040(%rsp),%r9
  402a4f:	00 
  402a50:	b9 08 36 40 00       	mov    $0x403608,%ecx
  402a55:	48 c7 c2 ff ff ff ff 	mov    $0xffffffffffffffff,%rdx
  402a5c:	be 01 00 00 00       	mov    $0x1,%esi
  402a61:	48 89 df             	mov    %rbx,%rdi
  402a64:	b8 00 00 00 00       	mov    $0x0,%eax
  402a69:	e8 c2 e3 ff ff       	callq  400e30 <__sprintf_chk@plt>
  402a6e:	89 ef                	mov    %ebp,%edi
  402a70:	e8 6b e2 ff ff       	callq  400ce0 <close@plt>
  402a75:	b8 ff ff ff ff       	mov    $0xffffffff,%eax
  402a7a:	e9 97 00 00 00       	jmpq   402b16 <submitr+0x746>
  402a7f:	48 8d b4 24 40 20 00 	lea    0x2040(%rsp),%rsi
  402a86:	00 
  402a87:	48 89 df             	mov    %rbx,%rdi
  402a8a:	e8 e1 e1 ff ff       	callq  400c70 <strcpy@plt>
  402a8f:	89 ef                	mov    %ebp,%edi
  402a91:	e8 4a e2 ff ff       	callq  400ce0 <close@plt>
  402a96:	0f b6 03             	movzbl (%rbx),%eax
  402a99:	ba 4f 00 00 00       	mov    $0x4f,%edx
  402a9e:	29 c2                	sub    %eax,%edx
  402aa0:	75 22                	jne    402ac4 <submitr+0x6f4>
  402aa2:	0f b6 4b 01          	movzbl 0x1(%rbx),%ecx
  402aa6:	b8 4b 00 00 00       	mov    $0x4b,%eax
  402aab:	29 c8                	sub    %ecx,%eax
  402aad:	75 17                	jne    402ac6 <submitr+0x6f6>
  402aaf:	0f b6 4b 02          	movzbl 0x2(%rbx),%ecx
  402ab3:	b8 0a 00 00 00       	mov    $0xa,%eax
  402ab8:	29 c8                	sub    %ecx,%eax
  402aba:	75 0a                	jne    402ac6 <submitr+0x6f6>
  402abc:	0f b6 43 03          	movzbl 0x3(%rbx),%eax
  402ac0:	f7 d8                	neg    %eax
  402ac2:	eb 02                	jmp    402ac6 <submitr+0x6f6>
  402ac4:	89 d0                	mov    %edx,%eax
  402ac6:	85 c0                	test   %eax,%eax
  402ac8:	74 40                	je     402b0a <submitr+0x73a>
  402aca:	bf 50 36 40 00       	mov    $0x403650,%edi
  402acf:	b9 05 00 00 00       	mov    $0x5,%ecx
  402ad4:	48 89 de             	mov    %rbx,%rsi
  402ad7:	f3 a6                	repz cmpsb %es:(%rdi),%ds:(%rsi)
  402ad9:	0f 97 c0             	seta   %al
  402adc:	0f 92 c1             	setb   %cl
  402adf:	29 c8                	sub    %ecx,%eax
  402ae1:	0f be c0             	movsbl %al,%eax
  402ae4:	85 c0                	test   %eax,%eax
  402ae6:	74 2e                	je     402b16 <submitr+0x746>
  402ae8:	85 d2                	test   %edx,%edx
  402aea:	75 13                	jne    402aff <submitr+0x72f>
  402aec:	0f b6 43 01          	movzbl 0x1(%rbx),%eax
  402af0:	ba 4b 00 00 00       	mov    $0x4b,%edx
  402af5:	29 c2                	sub    %eax,%edx
  402af7:	75 06                	jne    402aff <submitr+0x72f>
  402af9:	0f b6 53 02          	movzbl 0x2(%rbx),%edx
  402afd:	f7 da                	neg    %edx
  402aff:	85 d2                	test   %edx,%edx
  402b01:	75 0e                	jne    402b11 <submitr+0x741>
  402b03:	b8 00 00 00 00       	mov    $0x0,%eax
  402b08:	eb 0c                	jmp    402b16 <submitr+0x746>
  402b0a:	b8 00 00 00 00       	mov    $0x0,%eax
  402b0f:	eb 05                	jmp    402b16 <submitr+0x746>
  402b11:	b8 ff ff ff ff       	mov    $0xffffffff,%eax
  402b16:	48 8b 9c 24 48 a0 00 	mov    0xa048(%rsp),%rbx
  402b1d:	00 
  402b1e:	64 48 33 1c 25 28 00 	xor    %fs:0x28,%rbx
  402b25:	00 00 
  402b27:	74 05                	je     402b2e <submitr+0x75e>
  402b29:	e8 72 e1 ff ff       	callq  400ca0 <__stack_chk_fail@plt>
  402b2e:	48 81 c4 58 a0 00 00 	add    $0xa058,%rsp
  402b35:	5b                   	pop    %rbx
  402b36:	5d                   	pop    %rbp
  402b37:	41 5c                	pop    %r12
  402b39:	41 5d                	pop    %r13
  402b3b:	41 5e                	pop    %r14
  402b3d:	41 5f                	pop    %r15
  402b3f:	c3                   	retq   

0000000000402b40 <init_timeout>:
  402b40:	85 ff                	test   %edi,%edi
  402b42:	74 23                	je     402b67 <init_timeout+0x27>
  402b44:	53                   	push   %rbx
  402b45:	89 fb                	mov    %edi,%ebx
  402b47:	85 ff                	test   %edi,%edi
  402b49:	79 05                	jns    402b50 <init_timeout+0x10>
  402b4b:	bb 00 00 00 00       	mov    $0x0,%ebx
  402b50:	be 04 21 40 00       	mov    $0x402104,%esi
  402b55:	bf 0e 00 00 00       	mov    $0xe,%edi
  402b5a:	e8 b1 e1 ff ff       	callq  400d10 <signal@plt>
  402b5f:	89 df                	mov    %ebx,%edi
  402b61:	e8 6a e1 ff ff       	callq  400cd0 <alarm@plt>
  402b66:	5b                   	pop    %rbx
  402b67:	f3 c3                	repz retq 

0000000000402b69 <init_driver>:
  402b69:	55                   	push   %rbp
  402b6a:	53                   	push   %rbx
  402b6b:	48 83 ec 28          	sub    $0x28,%rsp
  402b6f:	48 89 fd             	mov    %rdi,%rbp
  402b72:	64 48 8b 04 25 28 00 	mov    %fs:0x28,%rax
  402b79:	00 00 
  402b7b:	48 89 44 24 18       	mov    %rax,0x18(%rsp)
  402b80:	31 c0                	xor    %eax,%eax
  402b82:	be 01 00 00 00       	mov    $0x1,%esi
  402b87:	bf 0d 00 00 00       	mov    $0xd,%edi
  402b8c:	e8 7f e1 ff ff       	callq  400d10 <signal@plt>
  402b91:	be 01 00 00 00       	mov    $0x1,%esi
  402b96:	bf 1d 00 00 00       	mov    $0x1d,%edi
  402b9b:	e8 70 e1 ff ff       	callq  400d10 <signal@plt>
  402ba0:	be 01 00 00 00       	mov    $0x1,%esi
  402ba5:	bf 1d 00 00 00       	mov    $0x1d,%edi
  402baa:	e8 61 e1 ff ff       	callq  400d10 <signal@plt>
  402baf:	ba 00 00 00 00       	mov    $0x0,%edx
  402bb4:	be 01 00 00 00       	mov    $0x1,%esi
  402bb9:	bf 02 00 00 00       	mov    $0x2,%edi
  402bbe:	e8 7d e2 ff ff       	callq  400e40 <socket@plt>
  402bc3:	85 c0                	test   %eax,%eax
  402bc5:	79 4f                	jns    402c16 <init_driver+0xad>
  402bc7:	48 b8 45 72 72 6f 72 	movabs $0x43203a726f727245,%rax
  402bce:	3a 20 43 
  402bd1:	48 89 45 00          	mov    %rax,0x0(%rbp)
  402bd5:	48 b8 6c 69 65 6e 74 	movabs $0x6e7520746e65696c,%rax
  402bdc:	20 75 6e 
  402bdf:	48 89 45 08          	mov    %rax,0x8(%rbp)
  402be3:	48 b8 61 62 6c 65 20 	movabs $0x206f7420656c6261,%rax
  402bea:	74 6f 20 
  402bed:	48 89 45 10          	mov    %rax,0x10(%rbp)
  402bf1:	48 b8 63 72 65 61 74 	movabs $0x7320657461657263,%rax
  402bf8:	65 20 73 
  402bfb:	48 89 45 18          	mov    %rax,0x18(%rbp)
  402bff:	c7 45 20 6f 63 6b 65 	movl   $0x656b636f,0x20(%rbp)
  402c06:	66 c7 45 24 74 00    	movw   $0x74,0x24(%rbp)
  402c0c:	b8 ff ff ff ff       	mov    $0xffffffff,%eax
  402c11:	e9 2a 01 00 00       	jmpq   402d40 <init_driver+0x1d7>
  402c16:	89 c3                	mov    %eax,%ebx
  402c18:	bf 55 36 40 00       	mov    $0x403655,%edi
  402c1d:	e8 fe e0 ff ff       	callq  400d20 <gethostbyname@plt>
  402c22:	48 85 c0             	test   %rax,%rax
  402c25:	75 68                	jne    402c8f <init_driver+0x126>
  402c27:	48 b8 45 72 72 6f 72 	movabs $0x44203a726f727245,%rax
  402c2e:	3a 20 44 
  402c31:	48 89 45 00          	mov    %rax,0x0(%rbp)
  402c35:	48 b8 4e 53 20 69 73 	movabs $0x6e7520736920534e,%rax
  402c3c:	20 75 6e 
  402c3f:	48 89 45 08          	mov    %rax,0x8(%rbp)
  402c43:	48 b8 61 62 6c 65 20 	movabs $0x206f7420656c6261,%rax
  402c4a:	74 6f 20 
  402c4d:	48 89 45 10          	mov    %rax,0x10(%rbp)
  402c51:	48 b8 72 65 73 6f 6c 	movabs $0x2065766c6f736572,%rax
  402c58:	76 65 20 
  402c5b:	48 89 45 18          	mov    %rax,0x18(%rbp)
  402c5f:	48 b8 73 65 72 76 65 	movabs $0x6120726576726573,%rax
  402c66:	72 20 61 
  402c69:	48 89 45 20          	mov    %rax,0x20(%rbp)
  402c6d:	c7 45 28 64 64 72 65 	movl   $0x65726464,0x28(%rbp)
  402c74:	66 c7 45 2c 73 73    	movw   $0x7373,0x2c(%rbp)
  402c7a:	c6 45 2e 00          	movb   $0x0,0x2e(%rbp)
  402c7e:	89 df                	mov    %ebx,%edi
  402c80:	e8 5b e0 ff ff       	callq  400ce0 <close@plt>
  402c85:	b8 ff ff ff ff       	mov    $0xffffffff,%eax
  402c8a:	e9 b1 00 00 00       	jmpq   402d40 <init_driver+0x1d7>
  402c8f:	48 c7 04 24 00 00 00 	movq   $0x0,(%rsp)
  402c96:	00 
  402c97:	48 c7 44 24 08 00 00 	movq   $0x0,0x8(%rsp)
  402c9e:	00 00 
  402ca0:	66 c7 04 24 02 00    	movw   $0x2,(%rsp)
  402ca6:	48 63 50 14          	movslq 0x14(%rax),%rdx
  402caa:	48 8b 40 18          	mov    0x18(%rax),%rax
  402cae:	48 8b 30             	mov    (%rax),%rsi
  402cb1:	48 8d 7c 24 04       	lea    0x4(%rsp),%rdi
  402cb6:	b9 0c 00 00 00       	mov    $0xc,%ecx
  402cbb:	e8 70 e0 ff ff       	callq  400d30 <__memmove_chk@plt>
  402cc0:	66 c7 44 24 02 27 17 	movw   $0x1727,0x2(%rsp)
  402cc7:	ba 10 00 00 00       	mov    $0x10,%edx
  402ccc:	48 89 e6             	mov    %rsp,%rsi
  402ccf:	89 df                	mov    %ebx,%edi
  402cd1:	e8 3a e1 ff ff       	callq  400e10 <connect@plt>
  402cd6:	85 c0                	test   %eax,%eax
  402cd8:	79 50                	jns    402d2a <init_driver+0x1c1>
  402cda:	48 b8 45 72 72 6f 72 	movabs $0x55203a726f727245,%rax
  402ce1:	3a 20 55 
  402ce4:	48 89 45 00          	mov    %rax,0x0(%rbp)
  402ce8:	48 b8 6e 61 62 6c 65 	movabs $0x6f7420656c62616e,%rax
  402cef:	20 74 6f 
  402cf2:	48 89 45 08          	mov    %rax,0x8(%rbp)
  402cf6:	48 b8 20 63 6f 6e 6e 	movabs $0x7463656e6e6f6320,%rax
  402cfd:	65 63 74 
  402d00:	48 89 45 10          	mov    %rax,0x10(%rbp)
  402d04:	48 b8 20 74 6f 20 73 	movabs $0x76726573206f7420,%rax
  402d0b:	65 72 76 
  402d0e:	48 89 45 18          	mov    %rax,0x18(%rbp)
  402d12:	66 c7 45 20 65 72    	movw   $0x7265,0x20(%rbp)
  402d18:	c6 45 22 00          	movb   $0x0,0x22(%rbp)
  402d1c:	89 df                	mov    %ebx,%edi
  402d1e:	e8 bd df ff ff       	callq  400ce0 <close@plt>
  402d23:	b8 ff ff ff ff       	mov    $0xffffffff,%eax
  402d28:	eb 16                	jmp    402d40 <init_driver+0x1d7>
  402d2a:	89 df                	mov    %ebx,%edi
  402d2c:	e8 af df ff ff       	callq  400ce0 <close@plt>
  402d31:	66 c7 45 00 4f 4b    	movw   $0x4b4f,0x0(%rbp)
  402d37:	c6 45 02 00          	movb   $0x0,0x2(%rbp)
  402d3b:	b8 00 00 00 00       	mov    $0x0,%eax
  402d40:	48 8b 4c 24 18       	mov    0x18(%rsp),%rcx
  402d45:	64 48 33 0c 25 28 00 	xor    %fs:0x28,%rcx
  402d4c:	00 00 
  402d4e:	74 05                	je     402d55 <init_driver+0x1ec>
  402d50:	e8 4b df ff ff       	callq  400ca0 <__stack_chk_fail@plt>
  402d55:	48 83 c4 28          	add    $0x28,%rsp
  402d59:	5b                   	pop    %rbx
  402d5a:	5d                   	pop    %rbp
  402d5b:	c3                   	retq   

0000000000402d5c <driver_post>:
  402d5c:	53                   	push   %rbx
  402d5d:	4c 89 cb             	mov    %r9,%rbx
  402d60:	45 85 c0             	test   %r8d,%r8d
  402d63:	74 27                	je     402d8c <driver_post+0x30>
  402d65:	48 89 ca             	mov    %rcx,%rdx
  402d68:	be 64 36 40 00       	mov    $0x403664,%esi
  402d6d:	bf 01 00 00 00       	mov    $0x1,%edi
  402d72:	b8 00 00 00 00       	mov    $0x0,%eax
  402d77:	e8 34 e0 ff ff       	callq  400db0 <__printf_chk@plt>
  402d7c:	66 c7 03 4f 4b       	movw   $0x4b4f,(%rbx)
  402d81:	c6 43 02 00          	movb   $0x0,0x2(%rbx)
  402d85:	b8 00 00 00 00       	mov    $0x0,%eax
  402d8a:	eb 3f                	jmp    402dcb <driver_post+0x6f>
  402d8c:	48 85 ff             	test   %rdi,%rdi
  402d8f:	74 2c                	je     402dbd <driver_post+0x61>
  402d91:	80 3f 00             	cmpb   $0x0,(%rdi)
  402d94:	74 27                	je     402dbd <driver_post+0x61>
  402d96:	48 83 ec 08          	sub    $0x8,%rsp
  402d9a:	41 51                	push   %r9
  402d9c:	49 89 c9             	mov    %rcx,%r9
  402d9f:	49 89 d0             	mov    %rdx,%r8
  402da2:	48 89 f9             	mov    %rdi,%rcx
  402da5:	48 89 f2             	mov    %rsi,%rdx
  402da8:	be 17 27 00 00       	mov    $0x2717,%esi
  402dad:	bf 55 36 40 00       	mov    $0x403655,%edi
  402db2:	e8 19 f6 ff ff       	callq  4023d0 <submitr>
  402db7:	48 83 c4 10          	add    $0x10,%rsp
  402dbb:	eb 0e                	jmp    402dcb <driver_post+0x6f>
  402dbd:	66 c7 03 4f 4b       	movw   $0x4b4f,(%rbx)
  402dc2:	c6 43 02 00          	movb   $0x0,0x2(%rbx)
  402dc6:	b8 00 00 00 00       	mov    $0x0,%eax
  402dcb:	5b                   	pop    %rbx
  402dcc:	c3                   	retq   

0000000000402dcd <check>:
  402dcd:	89 f8                	mov    %edi,%eax
  402dcf:	c1 e8 1c             	shr    $0x1c,%eax
  402dd2:	85 c0                	test   %eax,%eax
  402dd4:	74 1d                	je     402df3 <check+0x26>
  402dd6:	b9 00 00 00 00       	mov    $0x0,%ecx
  402ddb:	eb 0b                	jmp    402de8 <check+0x1b>
  402ddd:	89 f8                	mov    %edi,%eax
  402ddf:	d3 e8                	shr    %cl,%eax
  402de1:	3c 0a                	cmp    $0xa,%al
  402de3:	74 14                	je     402df9 <check+0x2c>
  402de5:	83 c1 08             	add    $0x8,%ecx
  402de8:	83 f9 1f             	cmp    $0x1f,%ecx
  402deb:	7e f0                	jle    402ddd <check+0x10>
  402ded:	b8 01 00 00 00       	mov    $0x1,%eax
  402df2:	c3                   	retq   
  402df3:	b8 00 00 00 00       	mov    $0x0,%eax
  402df8:	c3                   	retq   
  402df9:	b8 00 00 00 00       	mov    $0x0,%eax
  402dfe:	c3                   	retq   

0000000000402dff <gencookie>:
  402dff:	53                   	push   %rbx
  402e00:	83 c7 01             	add    $0x1,%edi
  402e03:	e8 48 de ff ff       	callq  400c50 <srandom@plt>
  402e08:	e8 63 df ff ff       	callq  400d70 <random@plt>
  402e0d:	89 c3                	mov    %eax,%ebx
  402e0f:	89 c7                	mov    %eax,%edi
  402e11:	e8 b7 ff ff ff       	callq  402dcd <check>
  402e16:	85 c0                	test   %eax,%eax
  402e18:	74 ee                	je     402e08 <gencookie+0x9>
  402e1a:	89 d8                	mov    %ebx,%eax
  402e1c:	5b                   	pop    %rbx
  402e1d:	c3                   	retq   
  402e1e:	66 90                	xchg   %ax,%ax

0000000000402e20 <__libc_csu_init>:
  402e20:	41 57                	push   %r15
  402e22:	41 56                	push   %r14
  402e24:	41 89 ff             	mov    %edi,%r15d
  402e27:	41 55                	push   %r13
  402e29:	41 54                	push   %r12
  402e2b:	4c 8d 25 de 0f 20 00 	lea    0x200fde(%rip),%r12        # 603e10 <__frame_dummy_init_array_entry>
  402e32:	55                   	push   %rbp
  402e33:	48 8d 2d de 0f 20 00 	lea    0x200fde(%rip),%rbp        # 603e18 <__do_global_dtors_aux_fini_array_entry>
  402e3a:	53                   	push   %rbx
  402e3b:	49 89 f6             	mov    %rsi,%r14
  402e3e:	49 89 d5             	mov    %rdx,%r13
  402e41:	4c 29 e5             	sub    %r12,%rbp
  402e44:	48 83 ec 08          	sub    $0x8,%rsp
  402e48:	48 c1 fd 03          	sar    $0x3,%rbp
  402e4c:	e8 b7 dd ff ff       	callq  400c08 <_init>
  402e51:	48 85 ed             	test   %rbp,%rbp
  402e54:	74 20                	je     402e76 <__libc_csu_init+0x56>
  402e56:	31 db                	xor    %ebx,%ebx
  402e58:	0f 1f 84 00 00 00 00 	nopl   0x0(%rax,%rax,1)
  402e5f:	00 
  402e60:	4c 89 ea             	mov    %r13,%rdx
  402e63:	4c 89 f6             	mov    %r14,%rsi
  402e66:	44 89 ff             	mov    %r15d,%edi
  402e69:	41 ff 14 dc          	callq  *(%r12,%rbx,8)
  402e6d:	48 83 c3 01          	add    $0x1,%rbx
  402e71:	48 39 eb             	cmp    %rbp,%rbx
  402e74:	75 ea                	jne    402e60 <__libc_csu_init+0x40>
  402e76:	48 83 c4 08          	add    $0x8,%rsp
  402e7a:	5b                   	pop    %rbx
  402e7b:	5d                   	pop    %rbp
  402e7c:	41 5c                	pop    %r12
  402e7e:	41 5d                	pop    %r13
  402e80:	41 5e                	pop    %r14
  402e82:	41 5f                	pop    %r15
  402e84:	c3                   	retq   
  402e85:	90                   	nop
  402e86:	66 2e 0f 1f 84 00 00 	nopw   %cs:0x0(%rax,%rax,1)
  402e8d:	00 00 00 

0000000000402e90 <__libc_csu_fini>:
  402e90:	f3 c3                	repz retq 

Disassembly of section .fini:

0000000000402e94 <_fini>:
  402e94:	48 83 ec 08          	sub    $0x8,%rsp
  402e98:	48 83 c4 08          	add    $0x8,%rsp
  402e9c:	c3                   	retq   
