
rtarget:     file format elf64-x86-64


Disassembly of section .init:

0000000000400c08 <_init>:
  400c08:	48 83 ec 08          	sub    $0x8,%rsp
  400c0c:	48 8b 05 e5 43 20 00 	mov    0x2043e5(%rip),%rax        # 604ff8 <__gmon_start__>
  400c13:	48 85 c0             	test   %rax,%rax
  400c16:	74 05                	je     400c1d <_init+0x15>
  400c18:	e8 33 02 00 00       	callq  400e50 <__gmon_start__@plt>
  400c1d:	48 83 c4 08          	add    $0x8,%rsp
  400c21:	c3                   	retq   

Disassembly of section .plt:

0000000000400c30 <.plt>:
  400c30:	ff 35 d2 43 20 00    	pushq  0x2043d2(%rip)        # 605008 <_GLOBAL_OFFSET_TABLE_+0x8>
  400c36:	ff 25 d4 43 20 00    	jmpq   *0x2043d4(%rip)        # 605010 <_GLOBAL_OFFSET_TABLE_+0x10>
  400c3c:	0f 1f 40 00          	nopl   0x0(%rax)

0000000000400c40 <__errno_location@plt>:
  400c40:	ff 25 d2 43 20 00    	jmpq   *0x2043d2(%rip)        # 605018 <__errno_location@GLIBC_2.2.5>
  400c46:	68 00 00 00 00       	pushq  $0x0
  400c4b:	e9 e0 ff ff ff       	jmpq   400c30 <.plt>

0000000000400c50 <srandom@plt>:
  400c50:	ff 25 ca 43 20 00    	jmpq   *0x2043ca(%rip)        # 605020 <srandom@GLIBC_2.2.5>
  400c56:	68 01 00 00 00       	pushq  $0x1
  400c5b:	e9 d0 ff ff ff       	jmpq   400c30 <.plt>

0000000000400c60 <strncmp@plt>:
  400c60:	ff 25 c2 43 20 00    	jmpq   *0x2043c2(%rip)        # 605028 <strncmp@GLIBC_2.2.5>
  400c66:	68 02 00 00 00       	pushq  $0x2
  400c6b:	e9 c0 ff ff ff       	jmpq   400c30 <.plt>

0000000000400c70 <strcpy@plt>:
  400c70:	ff 25 ba 43 20 00    	jmpq   *0x2043ba(%rip)        # 605030 <strcpy@GLIBC_2.2.5>
  400c76:	68 03 00 00 00       	pushq  $0x3
  400c7b:	e9 b0 ff ff ff       	jmpq   400c30 <.plt>

0000000000400c80 <puts@plt>:
  400c80:	ff 25 b2 43 20 00    	jmpq   *0x2043b2(%rip)        # 605038 <puts@GLIBC_2.2.5>
  400c86:	68 04 00 00 00       	pushq  $0x4
  400c8b:	e9 a0 ff ff ff       	jmpq   400c30 <.plt>

0000000000400c90 <write@plt>:
  400c90:	ff 25 aa 43 20 00    	jmpq   *0x2043aa(%rip)        # 605040 <write@GLIBC_2.2.5>
  400c96:	68 05 00 00 00       	pushq  $0x5
  400c9b:	e9 90 ff ff ff       	jmpq   400c30 <.plt>

0000000000400ca0 <__stack_chk_fail@plt>:
  400ca0:	ff 25 a2 43 20 00    	jmpq   *0x2043a2(%rip)        # 605048 <__stack_chk_fail@GLIBC_2.4>
  400ca6:	68 06 00 00 00       	pushq  $0x6
  400cab:	e9 80 ff ff ff       	jmpq   400c30 <.plt>

0000000000400cb0 <mmap@plt>:
  400cb0:	ff 25 9a 43 20 00    	jmpq   *0x20439a(%rip)        # 605050 <mmap@GLIBC_2.2.5>
  400cb6:	68 07 00 00 00       	pushq  $0x7
  400cbb:	e9 70 ff ff ff       	jmpq   400c30 <.plt>

0000000000400cc0 <memset@plt>:
  400cc0:	ff 25 92 43 20 00    	jmpq   *0x204392(%rip)        # 605058 <memset@GLIBC_2.2.5>
  400cc6:	68 08 00 00 00       	pushq  $0x8
  400ccb:	e9 60 ff ff ff       	jmpq   400c30 <.plt>

0000000000400cd0 <alarm@plt>:
  400cd0:	ff 25 8a 43 20 00    	jmpq   *0x20438a(%rip)        # 605060 <alarm@GLIBC_2.2.5>
  400cd6:	68 09 00 00 00       	pushq  $0x9
  400cdb:	e9 50 ff ff ff       	jmpq   400c30 <.plt>

0000000000400ce0 <close@plt>:
  400ce0:	ff 25 82 43 20 00    	jmpq   *0x204382(%rip)        # 605068 <close@GLIBC_2.2.5>
  400ce6:	68 0a 00 00 00       	pushq  $0xa
  400ceb:	e9 40 ff ff ff       	jmpq   400c30 <.plt>

0000000000400cf0 <read@plt>:
  400cf0:	ff 25 7a 43 20 00    	jmpq   *0x20437a(%rip)        # 605070 <read@GLIBC_2.2.5>
  400cf6:	68 0b 00 00 00       	pushq  $0xb
  400cfb:	e9 30 ff ff ff       	jmpq   400c30 <.plt>

0000000000400d00 <__libc_start_main@plt>:
  400d00:	ff 25 72 43 20 00    	jmpq   *0x204372(%rip)        # 605078 <__libc_start_main@GLIBC_2.2.5>
  400d06:	68 0c 00 00 00       	pushq  $0xc
  400d0b:	e9 20 ff ff ff       	jmpq   400c30 <.plt>

0000000000400d10 <signal@plt>:
  400d10:	ff 25 6a 43 20 00    	jmpq   *0x20436a(%rip)        # 605080 <signal@GLIBC_2.2.5>
  400d16:	68 0d 00 00 00       	pushq  $0xd
  400d1b:	e9 10 ff ff ff       	jmpq   400c30 <.plt>

0000000000400d20 <gethostbyname@plt>:
  400d20:	ff 25 62 43 20 00    	jmpq   *0x204362(%rip)        # 605088 <gethostbyname@GLIBC_2.2.5>
  400d26:	68 0e 00 00 00       	pushq  $0xe
  400d2b:	e9 00 ff ff ff       	jmpq   400c30 <.plt>

0000000000400d30 <__memmove_chk@plt>:
  400d30:	ff 25 5a 43 20 00    	jmpq   *0x20435a(%rip)        # 605090 <__memmove_chk@GLIBC_2.3.4>
  400d36:	68 0f 00 00 00       	pushq  $0xf
  400d3b:	e9 f0 fe ff ff       	jmpq   400c30 <.plt>

0000000000400d40 <strtol@plt>:
  400d40:	ff 25 52 43 20 00    	jmpq   *0x204352(%rip)        # 605098 <strtol@GLIBC_2.2.5>
  400d46:	68 10 00 00 00       	pushq  $0x10
  400d4b:	e9 e0 fe ff ff       	jmpq   400c30 <.plt>

0000000000400d50 <memcpy@plt>:
  400d50:	ff 25 4a 43 20 00    	jmpq   *0x20434a(%rip)        # 6050a0 <memcpy@GLIBC_2.14>
  400d56:	68 11 00 00 00       	pushq  $0x11
  400d5b:	e9 d0 fe ff ff       	jmpq   400c30 <.plt>

0000000000400d60 <time@plt>:
  400d60:	ff 25 42 43 20 00    	jmpq   *0x204342(%rip)        # 6050a8 <time@GLIBC_2.2.5>
  400d66:	68 12 00 00 00       	pushq  $0x12
  400d6b:	e9 c0 fe ff ff       	jmpq   400c30 <.plt>

0000000000400d70 <random@plt>:
  400d70:	ff 25 3a 43 20 00    	jmpq   *0x20433a(%rip)        # 6050b0 <random@GLIBC_2.2.5>
  400d76:	68 13 00 00 00       	pushq  $0x13
  400d7b:	e9 b0 fe ff ff       	jmpq   400c30 <.plt>

0000000000400d80 <_IO_getc@plt>:
  400d80:	ff 25 32 43 20 00    	jmpq   *0x204332(%rip)        # 6050b8 <_IO_getc@GLIBC_2.2.5>
  400d86:	68 14 00 00 00       	pushq  $0x14
  400d8b:	e9 a0 fe ff ff       	jmpq   400c30 <.plt>

0000000000400d90 <__isoc99_sscanf@plt>:
  400d90:	ff 25 2a 43 20 00    	jmpq   *0x20432a(%rip)        # 6050c0 <__isoc99_sscanf@GLIBC_2.7>
  400d96:	68 15 00 00 00       	pushq  $0x15
  400d9b:	e9 90 fe ff ff       	jmpq   400c30 <.plt>

0000000000400da0 <munmap@plt>:
  400da0:	ff 25 22 43 20 00    	jmpq   *0x204322(%rip)        # 6050c8 <munmap@GLIBC_2.2.5>
  400da6:	68 16 00 00 00       	pushq  $0x16
  400dab:	e9 80 fe ff ff       	jmpq   400c30 <.plt>

0000000000400db0 <__printf_chk@plt>:
  400db0:	ff 25 1a 43 20 00    	jmpq   *0x20431a(%rip)        # 6050d0 <__printf_chk@GLIBC_2.3.4>
  400db6:	68 17 00 00 00       	pushq  $0x17
  400dbb:	e9 70 fe ff ff       	jmpq   400c30 <.plt>

0000000000400dc0 <fopen@plt>:
  400dc0:	ff 25 12 43 20 00    	jmpq   *0x204312(%rip)        # 6050d8 <fopen@GLIBC_2.2.5>
  400dc6:	68 18 00 00 00       	pushq  $0x18
  400dcb:	e9 60 fe ff ff       	jmpq   400c30 <.plt>

0000000000400dd0 <getopt@plt>:
  400dd0:	ff 25 0a 43 20 00    	jmpq   *0x20430a(%rip)        # 6050e0 <getopt@GLIBC_2.2.5>
  400dd6:	68 19 00 00 00       	pushq  $0x19
  400ddb:	e9 50 fe ff ff       	jmpq   400c30 <.plt>

0000000000400de0 <strtoul@plt>:
  400de0:	ff 25 02 43 20 00    	jmpq   *0x204302(%rip)        # 6050e8 <strtoul@GLIBC_2.2.5>
  400de6:	68 1a 00 00 00       	pushq  $0x1a
  400deb:	e9 40 fe ff ff       	jmpq   400c30 <.plt>

0000000000400df0 <gethostname@plt>:
  400df0:	ff 25 fa 42 20 00    	jmpq   *0x2042fa(%rip)        # 6050f0 <gethostname@GLIBC_2.2.5>
  400df6:	68 1b 00 00 00       	pushq  $0x1b
  400dfb:	e9 30 fe ff ff       	jmpq   400c30 <.plt>

0000000000400e00 <exit@plt>:
  400e00:	ff 25 f2 42 20 00    	jmpq   *0x2042f2(%rip)        # 6050f8 <exit@GLIBC_2.2.5>
  400e06:	68 1c 00 00 00       	pushq  $0x1c
  400e0b:	e9 20 fe ff ff       	jmpq   400c30 <.plt>

0000000000400e10 <connect@plt>:
  400e10:	ff 25 ea 42 20 00    	jmpq   *0x2042ea(%rip)        # 605100 <connect@GLIBC_2.2.5>
  400e16:	68 1d 00 00 00       	pushq  $0x1d
  400e1b:	e9 10 fe ff ff       	jmpq   400c30 <.plt>

0000000000400e20 <__fprintf_chk@plt>:
  400e20:	ff 25 e2 42 20 00    	jmpq   *0x2042e2(%rip)        # 605108 <__fprintf_chk@GLIBC_2.3.4>
  400e26:	68 1e 00 00 00       	pushq  $0x1e
  400e2b:	e9 00 fe ff ff       	jmpq   400c30 <.plt>

0000000000400e30 <__sprintf_chk@plt>:
  400e30:	ff 25 da 42 20 00    	jmpq   *0x2042da(%rip)        # 605110 <__sprintf_chk@GLIBC_2.3.4>
  400e36:	68 1f 00 00 00       	pushq  $0x1f
  400e3b:	e9 f0 fd ff ff       	jmpq   400c30 <.plt>

0000000000400e40 <socket@plt>:
  400e40:	ff 25 d2 42 20 00    	jmpq   *0x2042d2(%rip)        # 605118 <socket@GLIBC_2.2.5>
  400e46:	68 20 00 00 00       	pushq  $0x20
  400e4b:	e9 e0 fd ff ff       	jmpq   400c30 <.plt>

Disassembly of section .plt.got:

0000000000400e50 <__gmon_start__@plt>:
  400e50:	ff 25 a2 41 20 00    	jmpq   *0x2041a2(%rip)        # 604ff8 <__gmon_start__>
  400e56:	66 90                	xchg   %ax,%ax

Disassembly of section .text:

0000000000400e60 <_start>:
  400e60:	31 ed                	xor    %ebp,%ebp
  400e62:	49 89 d1             	mov    %rdx,%r9
  400e65:	5e                   	pop    %rsi
  400e66:	48 89 e2             	mov    %rsp,%rdx
  400e69:	48 83 e4 f0          	and    $0xfffffffffffffff0,%rsp
  400e6d:	50                   	push   %rax
  400e6e:	54                   	push   %rsp
  400e6f:	49 c7 c0 c0 2f 40 00 	mov    $0x402fc0,%r8
  400e76:	48 c7 c1 50 2f 40 00 	mov    $0x402f50,%rcx
  400e7d:	48 c7 c7 0b 11 40 00 	mov    $0x40110b,%rdi
  400e84:	e8 77 fe ff ff       	callq  400d00 <__libc_start_main@plt>
  400e89:	f4                   	hlt    
  400e8a:	66 0f 1f 44 00 00    	nopw   0x0(%rax,%rax,1)

0000000000400e90 <deregister_tm_clones>:
  400e90:	b8 97 54 60 00       	mov    $0x605497,%eax
  400e95:	55                   	push   %rbp
  400e96:	48 2d 90 54 60 00    	sub    $0x605490,%rax
  400e9c:	48 83 f8 0e          	cmp    $0xe,%rax
  400ea0:	48 89 e5             	mov    %rsp,%rbp
  400ea3:	76 1b                	jbe    400ec0 <deregister_tm_clones+0x30>
  400ea5:	b8 00 00 00 00       	mov    $0x0,%eax
  400eaa:	48 85 c0             	test   %rax,%rax
  400ead:	74 11                	je     400ec0 <deregister_tm_clones+0x30>
  400eaf:	5d                   	pop    %rbp
  400eb0:	bf 90 54 60 00       	mov    $0x605490,%edi
  400eb5:	ff e0                	jmpq   *%rax
  400eb7:	66 0f 1f 84 00 00 00 	nopw   0x0(%rax,%rax,1)
  400ebe:	00 00 
  400ec0:	5d                   	pop    %rbp
  400ec1:	c3                   	retq   
  400ec2:	0f 1f 40 00          	nopl   0x0(%rax)
  400ec6:	66 2e 0f 1f 84 00 00 	nopw   %cs:0x0(%rax,%rax,1)
  400ecd:	00 00 00 

0000000000400ed0 <register_tm_clones>:
  400ed0:	be 90 54 60 00       	mov    $0x605490,%esi
  400ed5:	55                   	push   %rbp
  400ed6:	48 81 ee 90 54 60 00 	sub    $0x605490,%rsi
  400edd:	48 c1 fe 03          	sar    $0x3,%rsi
  400ee1:	48 89 e5             	mov    %rsp,%rbp
  400ee4:	48 89 f0             	mov    %rsi,%rax
  400ee7:	48 c1 e8 3f          	shr    $0x3f,%rax
  400eeb:	48 01 c6             	add    %rax,%rsi
  400eee:	48 d1 fe             	sar    %rsi
  400ef1:	74 15                	je     400f08 <register_tm_clones+0x38>
  400ef3:	b8 00 00 00 00       	mov    $0x0,%eax
  400ef8:	48 85 c0             	test   %rax,%rax
  400efb:	74 0b                	je     400f08 <register_tm_clones+0x38>
  400efd:	5d                   	pop    %rbp
  400efe:	bf 90 54 60 00       	mov    $0x605490,%edi
  400f03:	ff e0                	jmpq   *%rax
  400f05:	0f 1f 00             	nopl   (%rax)
  400f08:	5d                   	pop    %rbp
  400f09:	c3                   	retq   
  400f0a:	66 0f 1f 44 00 00    	nopw   0x0(%rax,%rax,1)

0000000000400f10 <__do_global_dtors_aux>:
  400f10:	80 3d b1 45 20 00 00 	cmpb   $0x0,0x2045b1(%rip)        # 6054c8 <completed.7594>
  400f17:	75 11                	jne    400f2a <__do_global_dtors_aux+0x1a>
  400f19:	55                   	push   %rbp
  400f1a:	48 89 e5             	mov    %rsp,%rbp
  400f1d:	e8 6e ff ff ff       	callq  400e90 <deregister_tm_clones>
  400f22:	5d                   	pop    %rbp
  400f23:	c6 05 9e 45 20 00 01 	movb   $0x1,0x20459e(%rip)        # 6054c8 <completed.7594>
  400f2a:	f3 c3                	repz retq 
  400f2c:	0f 1f 40 00          	nopl   0x0(%rax)

0000000000400f30 <frame_dummy>:
  400f30:	bf 20 4e 60 00       	mov    $0x604e20,%edi
  400f35:	48 83 3f 00          	cmpq   $0x0,(%rdi)
  400f39:	75 05                	jne    400f40 <frame_dummy+0x10>
  400f3b:	eb 93                	jmp    400ed0 <register_tm_clones>
  400f3d:	0f 1f 00             	nopl   (%rax)
  400f40:	b8 00 00 00 00       	mov    $0x0,%eax
  400f45:	48 85 c0             	test   %rax,%rax
  400f48:	74 f1                	je     400f3b <frame_dummy+0xb>
  400f4a:	55                   	push   %rbp
  400f4b:	48 89 e5             	mov    %rsp,%rbp
  400f4e:	ff d0                	callq  *%rax
  400f50:	5d                   	pop    %rbp
  400f51:	e9 7a ff ff ff       	jmpq   400ed0 <register_tm_clones>

0000000000400f56 <usage>:
  400f56:	48 83 ec 08          	sub    $0x8,%rsp
  400f5a:	48 89 fa             	mov    %rdi,%rdx
  400f5d:	83 3d a4 45 20 00 00 	cmpl   $0x0,0x2045a4(%rip)        # 605508 <is_checker>
  400f64:	74 3e                	je     400fa4 <usage+0x4e>
  400f66:	be d8 2f 40 00       	mov    $0x402fd8,%esi
  400f6b:	bf 01 00 00 00       	mov    $0x1,%edi
  400f70:	b8 00 00 00 00       	mov    $0x0,%eax
  400f75:	e8 36 fe ff ff       	callq  400db0 <__printf_chk@plt>
  400f7a:	bf 10 30 40 00       	mov    $0x403010,%edi
  400f7f:	e8 fc fc ff ff       	callq  400c80 <puts@plt>
  400f84:	bf 48 31 40 00       	mov    $0x403148,%edi
  400f89:	e8 f2 fc ff ff       	callq  400c80 <puts@plt>
  400f8e:	bf 38 30 40 00       	mov    $0x403038,%edi
  400f93:	e8 e8 fc ff ff       	callq  400c80 <puts@plt>
  400f98:	bf 62 31 40 00       	mov    $0x403162,%edi
  400f9d:	e8 de fc ff ff       	callq  400c80 <puts@plt>
  400fa2:	eb 32                	jmp    400fd6 <usage+0x80>
  400fa4:	be 7e 31 40 00       	mov    $0x40317e,%esi
  400fa9:	bf 01 00 00 00       	mov    $0x1,%edi
  400fae:	b8 00 00 00 00       	mov    $0x0,%eax
  400fb3:	e8 f8 fd ff ff       	callq  400db0 <__printf_chk@plt>
  400fb8:	bf 60 30 40 00       	mov    $0x403060,%edi
  400fbd:	e8 be fc ff ff       	callq  400c80 <puts@plt>
  400fc2:	bf 88 30 40 00       	mov    $0x403088,%edi
  400fc7:	e8 b4 fc ff ff       	callq  400c80 <puts@plt>
  400fcc:	bf 9c 31 40 00       	mov    $0x40319c,%edi
  400fd1:	e8 aa fc ff ff       	callq  400c80 <puts@plt>
  400fd6:	bf 00 00 00 00       	mov    $0x0,%edi
  400fdb:	e8 20 fe ff ff       	callq  400e00 <exit@plt>

0000000000400fe0 <initialize_target>:
  400fe0:	55                   	push   %rbp
  400fe1:	53                   	push   %rbx
  400fe2:	48 81 ec 18 21 00 00 	sub    $0x2118,%rsp
  400fe9:	89 f5                	mov    %esi,%ebp
  400feb:	64 48 8b 04 25 28 00 	mov    %fs:0x28,%rax
  400ff2:	00 00 
  400ff4:	48 89 84 24 08 21 00 	mov    %rax,0x2108(%rsp)
  400ffb:	00 
  400ffc:	31 c0                	xor    %eax,%eax
  400ffe:	89 3d f4 44 20 00    	mov    %edi,0x2044f4(%rip)        # 6054f8 <check_level>
  401004:	8b 3d 3e 41 20 00    	mov    0x20413e(%rip),%edi        # 605148 <target_id>
  40100a:	e8 16 1f 00 00       	callq  402f25 <gencookie>
  40100f:	89 05 ef 44 20 00    	mov    %eax,0x2044ef(%rip)        # 605504 <cookie>
  401015:	89 c7                	mov    %eax,%edi
  401017:	e8 09 1f 00 00       	callq  402f25 <gencookie>
  40101c:	89 05 de 44 20 00    	mov    %eax,0x2044de(%rip)        # 605500 <authkey>
  401022:	8b 05 20 41 20 00    	mov    0x204120(%rip),%eax        # 605148 <target_id>
  401028:	8d 78 01             	lea    0x1(%rax),%edi
  40102b:	e8 20 fc ff ff       	callq  400c50 <srandom@plt>
  401030:	e8 3b fd ff ff       	callq  400d70 <random@plt>
  401035:	89 c7                	mov    %eax,%edi
  401037:	e8 a9 02 00 00       	callq  4012e5 <scramble>
  40103c:	89 c3                	mov    %eax,%ebx
  40103e:	85 ed                	test   %ebp,%ebp
  401040:	74 18                	je     40105a <initialize_target+0x7a>
  401042:	bf 00 00 00 00       	mov    $0x0,%edi
  401047:	e8 14 fd ff ff       	callq  400d60 <time@plt>
  40104c:	89 c7                	mov    %eax,%edi
  40104e:	e8 fd fb ff ff       	callq  400c50 <srandom@plt>
  401053:	e8 18 fd ff ff       	callq  400d70 <random@plt>
  401058:	eb 05                	jmp    40105f <initialize_target+0x7f>
  40105a:	b8 00 00 00 00       	mov    $0x0,%eax
  40105f:	01 c3                	add    %eax,%ebx
  401061:	0f b7 db             	movzwl %bx,%ebx
  401064:	8d 04 dd 00 01 00 00 	lea    0x100(,%rbx,8),%eax
  40106b:	89 c0                	mov    %eax,%eax
  40106d:	48 89 05 0c 44 20 00 	mov    %rax,0x20440c(%rip)        # 605480 <buf_offset>
  401074:	c6 05 ad 50 20 00 72 	movb   $0x72,0x2050ad(%rip)        # 606128 <target_prefix>
  40107b:	83 3d 06 44 20 00 00 	cmpl   $0x0,0x204406(%rip)        # 605488 <notify>
  401082:	74 65                	je     4010e9 <initialize_target+0x109>
  401084:	83 3d 7d 44 20 00 00 	cmpl   $0x0,0x20447d(%rip)        # 605508 <is_checker>
  40108b:	75 5c                	jne    4010e9 <initialize_target+0x109>
  40108d:	be 00 01 00 00       	mov    $0x100,%esi
  401092:	48 89 e7             	mov    %rsp,%rdi
  401095:	e8 56 fd ff ff       	callq  400df0 <gethostname@plt>
  40109a:	85 c0                	test   %eax,%eax
  40109c:	74 14                	je     4010b2 <initialize_target+0xd2>
  40109e:	bf b8 30 40 00       	mov    $0x4030b8,%edi
  4010a3:	e8 d8 fb ff ff       	callq  400c80 <puts@plt>
  4010a8:	bf 08 00 00 00       	mov    $0x8,%edi
  4010ad:	e8 4e fd ff ff       	callq  400e00 <exit@plt>
  4010b2:	48 8d bc 24 00 01 00 	lea    0x100(%rsp),%rdi
  4010b9:	00 
  4010ba:	e8 d0 1b 00 00       	callq  402c8f <init_driver>
  4010bf:	85 c0                	test   %eax,%eax
  4010c1:	79 26                	jns    4010e9 <initialize_target+0x109>
  4010c3:	48 8d 94 24 00 01 00 	lea    0x100(%rsp),%rdx
  4010ca:	00 
  4010cb:	be f0 30 40 00       	mov    $0x4030f0,%esi
  4010d0:	bf 01 00 00 00       	mov    $0x1,%edi
  4010d5:	b8 00 00 00 00       	mov    $0x0,%eax
  4010da:	e8 d1 fc ff ff       	callq  400db0 <__printf_chk@plt>
  4010df:	bf 08 00 00 00       	mov    $0x8,%edi
  4010e4:	e8 17 fd ff ff       	callq  400e00 <exit@plt>
  4010e9:	48 8b 84 24 08 21 00 	mov    0x2108(%rsp),%rax
  4010f0:	00 
  4010f1:	64 48 33 04 25 28 00 	xor    %fs:0x28,%rax
  4010f8:	00 00 
  4010fa:	74 05                	je     401101 <initialize_target+0x121>
  4010fc:	e8 9f fb ff ff       	callq  400ca0 <__stack_chk_fail@plt>
  401101:	48 81 c4 18 21 00 00 	add    $0x2118,%rsp
  401108:	5b                   	pop    %rbx
  401109:	5d                   	pop    %rbp
  40110a:	c3                   	retq   

000000000040110b <main>:
  40110b:	41 56                	push   %r14
  40110d:	41 55                	push   %r13
  40110f:	41 54                	push   %r12
  401111:	55                   	push   %rbp
  401112:	53                   	push   %rbx
  401113:	41 89 fc             	mov    %edi,%r12d
  401116:	48 89 f3             	mov    %rsi,%rbx
  401119:	be ca 1f 40 00       	mov    $0x401fca,%esi
  40111e:	bf 0b 00 00 00       	mov    $0xb,%edi
  401123:	e8 e8 fb ff ff       	callq  400d10 <signal@plt>
  401128:	be 7c 1f 40 00       	mov    $0x401f7c,%esi
  40112d:	bf 07 00 00 00       	mov    $0x7,%edi
  401132:	e8 d9 fb ff ff       	callq  400d10 <signal@plt>
  401137:	be 18 20 40 00       	mov    $0x402018,%esi
  40113c:	bf 04 00 00 00       	mov    $0x4,%edi
  401141:	e8 ca fb ff ff       	callq  400d10 <signal@plt>
  401146:	83 3d bb 43 20 00 00 	cmpl   $0x0,0x2043bb(%rip)        # 605508 <is_checker>
  40114d:	74 20                	je     40116f <main+0x64>
  40114f:	be 66 20 40 00       	mov    $0x402066,%esi
  401154:	bf 0e 00 00 00       	mov    $0xe,%edi
  401159:	e8 b2 fb ff ff       	callq  400d10 <signal@plt>
  40115e:	bf 05 00 00 00       	mov    $0x5,%edi
  401163:	e8 68 fb ff ff       	callq  400cd0 <alarm@plt>
  401168:	bd ba 31 40 00       	mov    $0x4031ba,%ebp
  40116d:	eb 05                	jmp    401174 <main+0x69>
  40116f:	bd b5 31 40 00       	mov    $0x4031b5,%ebp
  401174:	48 8b 05 25 43 20 00 	mov    0x204325(%rip),%rax        # 6054a0 <stdin@@GLIBC_2.2.5>
  40117b:	48 89 05 6e 43 20 00 	mov    %rax,0x20436e(%rip)        # 6054f0 <infile>
  401182:	41 bd 00 00 00 00    	mov    $0x0,%r13d
  401188:	41 be 00 00 00 00    	mov    $0x0,%r14d
  40118e:	e9 c6 00 00 00       	jmpq   401259 <main+0x14e>
  401193:	83 e8 61             	sub    $0x61,%eax
  401196:	3c 10                	cmp    $0x10,%al
  401198:	0f 87 9c 00 00 00    	ja     40123a <main+0x12f>
  40119e:	0f b6 c0             	movzbl %al,%eax
  4011a1:	ff 24 c5 00 32 40 00 	jmpq   *0x403200(,%rax,8)
  4011a8:	48 8b 3b             	mov    (%rbx),%rdi
  4011ab:	e8 a6 fd ff ff       	callq  400f56 <usage>
  4011b0:	be 85 34 40 00       	mov    $0x403485,%esi
  4011b5:	48 8b 3d ec 42 20 00 	mov    0x2042ec(%rip),%rdi        # 6054a8 <optarg@@GLIBC_2.2.5>
  4011bc:	e8 ff fb ff ff       	callq  400dc0 <fopen@plt>
  4011c1:	48 89 05 28 43 20 00 	mov    %rax,0x204328(%rip)        # 6054f0 <infile>
  4011c8:	48 85 c0             	test   %rax,%rax
  4011cb:	0f 85 88 00 00 00    	jne    401259 <main+0x14e>
  4011d1:	48 8b 0d d0 42 20 00 	mov    0x2042d0(%rip),%rcx        # 6054a8 <optarg@@GLIBC_2.2.5>
  4011d8:	ba c2 31 40 00       	mov    $0x4031c2,%edx
  4011dd:	be 01 00 00 00       	mov    $0x1,%esi
  4011e2:	48 8b 3d d7 42 20 00 	mov    0x2042d7(%rip),%rdi        # 6054c0 <stderr@@GLIBC_2.2.5>
  4011e9:	e8 32 fc ff ff       	callq  400e20 <__fprintf_chk@plt>
  4011ee:	b8 01 00 00 00       	mov    $0x1,%eax
  4011f3:	e9 e4 00 00 00       	jmpq   4012dc <main+0x1d1>
  4011f8:	ba 10 00 00 00       	mov    $0x10,%edx
  4011fd:	be 00 00 00 00       	mov    $0x0,%esi
  401202:	48 8b 3d 9f 42 20 00 	mov    0x20429f(%rip),%rdi        # 6054a8 <optarg@@GLIBC_2.2.5>
  401209:	e8 d2 fb ff ff       	callq  400de0 <strtoul@plt>
  40120e:	41 89 c6             	mov    %eax,%r14d
  401211:	eb 46                	jmp    401259 <main+0x14e>
  401213:	ba 0a 00 00 00       	mov    $0xa,%edx
  401218:	be 00 00 00 00       	mov    $0x0,%esi
  40121d:	48 8b 3d 84 42 20 00 	mov    0x204284(%rip),%rdi        # 6054a8 <optarg@@GLIBC_2.2.5>
  401224:	e8 17 fb ff ff       	callq  400d40 <strtol@plt>
  401229:	41 89 c5             	mov    %eax,%r13d
  40122c:	eb 2b                	jmp    401259 <main+0x14e>
  40122e:	c7 05 50 42 20 00 00 	movl   $0x0,0x204250(%rip)        # 605488 <notify>
  401235:	00 00 00 
  401238:	eb 1f                	jmp    401259 <main+0x14e>
  40123a:	0f be d2             	movsbl %dl,%edx
  40123d:	be df 31 40 00       	mov    $0x4031df,%esi
  401242:	bf 01 00 00 00       	mov    $0x1,%edi
  401247:	b8 00 00 00 00       	mov    $0x0,%eax
  40124c:	e8 5f fb ff ff       	callq  400db0 <__printf_chk@plt>
  401251:	48 8b 3b             	mov    (%rbx),%rdi
  401254:	e8 fd fc ff ff       	callq  400f56 <usage>
  401259:	48 89 ea             	mov    %rbp,%rdx
  40125c:	48 89 de             	mov    %rbx,%rsi
  40125f:	44 89 e7             	mov    %r12d,%edi
  401262:	e8 69 fb ff ff       	callq  400dd0 <getopt@plt>
  401267:	89 c2                	mov    %eax,%edx
  401269:	3c ff                	cmp    $0xff,%al
  40126b:	0f 85 22 ff ff ff    	jne    401193 <main+0x88>
  401271:	be 01 00 00 00       	mov    $0x1,%esi
  401276:	44 89 ef             	mov    %r13d,%edi
  401279:	e8 62 fd ff ff       	callq  400fe0 <initialize_target>
  40127e:	83 3d 83 42 20 00 00 	cmpl   $0x0,0x204283(%rip)        # 605508 <is_checker>
  401285:	74 2a                	je     4012b1 <main+0x1a6>
  401287:	44 3b 35 72 42 20 00 	cmp    0x204272(%rip),%r14d        # 605500 <authkey>
  40128e:	74 21                	je     4012b1 <main+0x1a6>
  401290:	44 89 f2             	mov    %r14d,%edx
  401293:	be 18 31 40 00       	mov    $0x403118,%esi
  401298:	bf 01 00 00 00       	mov    $0x1,%edi
  40129d:	b8 00 00 00 00       	mov    $0x0,%eax
  4012a2:	e8 09 fb ff ff       	callq  400db0 <__printf_chk@plt>
  4012a7:	b8 00 00 00 00       	mov    $0x0,%eax
  4012ac:	e8 67 09 00 00       	callq  401c18 <check_fail>
  4012b1:	8b 15 4d 42 20 00    	mov    0x20424d(%rip),%edx        # 605504 <cookie>
  4012b7:	be f2 31 40 00       	mov    $0x4031f2,%esi
  4012bc:	bf 01 00 00 00       	mov    $0x1,%edi
  4012c1:	b8 00 00 00 00       	mov    $0x0,%eax
  4012c6:	e8 e5 fa ff ff       	callq  400db0 <__printf_chk@plt>
  4012cb:	48 8b 3d ae 41 20 00 	mov    0x2041ae(%rip),%rdi        # 605480 <buf_offset>
  4012d2:	e8 e2 0d 00 00       	callq  4020b9 <launch>
  4012d7:	b8 00 00 00 00       	mov    $0x0,%eax
  4012dc:	5b                   	pop    %rbx
  4012dd:	5d                   	pop    %rbp
  4012de:	41 5c                	pop    %r12
  4012e0:	41 5d                	pop    %r13
  4012e2:	41 5e                	pop    %r14
  4012e4:	c3                   	retq   

00000000004012e5 <scramble>:
  4012e5:	48 83 ec 38          	sub    $0x38,%rsp
  4012e9:	64 48 8b 04 25 28 00 	mov    %fs:0x28,%rax
  4012f0:	00 00 
  4012f2:	48 89 44 24 28       	mov    %rax,0x28(%rsp)
  4012f7:	31 c0                	xor    %eax,%eax
  4012f9:	eb 10                	jmp    40130b <scramble+0x26>
  4012fb:	69 d0 fb d9 00 00    	imul   $0xd9fb,%eax,%edx
  401301:	01 fa                	add    %edi,%edx
  401303:	89 c1                	mov    %eax,%ecx
  401305:	89 14 8c             	mov    %edx,(%rsp,%rcx,4)
  401308:	83 c0 01             	add    $0x1,%eax
  40130b:	83 f8 09             	cmp    $0x9,%eax
  40130e:	76 eb                	jbe    4012fb <scramble+0x16>
  401310:	8b 44 24 08          	mov    0x8(%rsp),%eax
  401314:	69 c0 c7 05 00 00    	imul   $0x5c7,%eax,%eax
  40131a:	89 44 24 08          	mov    %eax,0x8(%rsp)
  40131e:	8b 44 24 04          	mov    0x4(%rsp),%eax
  401322:	69 c0 dc 83 00 00    	imul   $0x83dc,%eax,%eax
  401328:	89 44 24 04          	mov    %eax,0x4(%rsp)
  40132c:	8b 44 24 0c          	mov    0xc(%rsp),%eax
  401330:	69 c0 45 49 00 00    	imul   $0x4945,%eax,%eax
  401336:	89 44 24 0c          	mov    %eax,0xc(%rsp)
  40133a:	8b 04 24             	mov    (%rsp),%eax
  40133d:	69 c0 c4 15 00 00    	imul   $0x15c4,%eax,%eax
  401343:	89 04 24             	mov    %eax,(%rsp)
  401346:	8b 44 24 1c          	mov    0x1c(%rsp),%eax
  40134a:	69 c0 41 e6 00 00    	imul   $0xe641,%eax,%eax
  401350:	89 44 24 1c          	mov    %eax,0x1c(%rsp)
  401354:	8b 44 24 10          	mov    0x10(%rsp),%eax
  401358:	69 c0 d9 52 00 00    	imul   $0x52d9,%eax,%eax
  40135e:	89 44 24 10          	mov    %eax,0x10(%rsp)
  401362:	8b 44 24 08          	mov    0x8(%rsp),%eax
  401366:	69 c0 a9 65 00 00    	imul   $0x65a9,%eax,%eax
  40136c:	89 44 24 08          	mov    %eax,0x8(%rsp)
  401370:	8b 44 24 1c          	mov    0x1c(%rsp),%eax
  401374:	69 c0 04 25 00 00    	imul   $0x2504,%eax,%eax
  40137a:	89 44 24 1c          	mov    %eax,0x1c(%rsp)
  40137e:	8b 44 24 10          	mov    0x10(%rsp),%eax
  401382:	69 c0 8c 21 00 00    	imul   $0x218c,%eax,%eax
  401388:	89 44 24 10          	mov    %eax,0x10(%rsp)
  40138c:	8b 04 24             	mov    (%rsp),%eax
  40138f:	69 c0 1e 95 00 00    	imul   $0x951e,%eax,%eax
  401395:	89 04 24             	mov    %eax,(%rsp)
  401398:	8b 44 24 0c          	mov    0xc(%rsp),%eax
  40139c:	69 c0 e9 ce 00 00    	imul   $0xcee9,%eax,%eax
  4013a2:	89 44 24 0c          	mov    %eax,0xc(%rsp)
  4013a6:	8b 44 24 24          	mov    0x24(%rsp),%eax
  4013aa:	69 c0 33 52 00 00    	imul   $0x5233,%eax,%eax
  4013b0:	89 44 24 24          	mov    %eax,0x24(%rsp)
  4013b4:	8b 44 24 20          	mov    0x20(%rsp),%eax
  4013b8:	69 c0 13 44 00 00    	imul   $0x4413,%eax,%eax
  4013be:	89 44 24 20          	mov    %eax,0x20(%rsp)
  4013c2:	8b 44 24 0c          	mov    0xc(%rsp),%eax
  4013c6:	69 c0 88 cb 00 00    	imul   $0xcb88,%eax,%eax
  4013cc:	89 44 24 0c          	mov    %eax,0xc(%rsp)
  4013d0:	8b 44 24 08          	mov    0x8(%rsp),%eax
  4013d4:	69 c0 8c f8 00 00    	imul   $0xf88c,%eax,%eax
  4013da:	89 44 24 08          	mov    %eax,0x8(%rsp)
  4013de:	8b 44 24 04          	mov    0x4(%rsp),%eax
  4013e2:	69 c0 b6 36 00 00    	imul   $0x36b6,%eax,%eax
  4013e8:	89 44 24 04          	mov    %eax,0x4(%rsp)
  4013ec:	8b 44 24 08          	mov    0x8(%rsp),%eax
  4013f0:	69 c0 9a ac 00 00    	imul   $0xac9a,%eax,%eax
  4013f6:	89 44 24 08          	mov    %eax,0x8(%rsp)
  4013fa:	8b 44 24 20          	mov    0x20(%rsp),%eax
  4013fe:	69 c0 39 57 00 00    	imul   $0x5739,%eax,%eax
  401404:	89 44 24 20          	mov    %eax,0x20(%rsp)
  401408:	8b 44 24 04          	mov    0x4(%rsp),%eax
  40140c:	69 c0 34 35 00 00    	imul   $0x3534,%eax,%eax
  401412:	89 44 24 04          	mov    %eax,0x4(%rsp)
  401416:	8b 44 24 0c          	mov    0xc(%rsp),%eax
  40141a:	69 c0 64 a5 00 00    	imul   $0xa564,%eax,%eax
  401420:	89 44 24 0c          	mov    %eax,0xc(%rsp)
  401424:	8b 44 24 04          	mov    0x4(%rsp),%eax
  401428:	69 c0 1e 8e 00 00    	imul   $0x8e1e,%eax,%eax
  40142e:	89 44 24 04          	mov    %eax,0x4(%rsp)
  401432:	8b 44 24 18          	mov    0x18(%rsp),%eax
  401436:	69 c0 fa f8 00 00    	imul   $0xf8fa,%eax,%eax
  40143c:	89 44 24 18          	mov    %eax,0x18(%rsp)
  401440:	8b 04 24             	mov    (%rsp),%eax
  401443:	69 c0 14 8f 00 00    	imul   $0x8f14,%eax,%eax
  401449:	89 04 24             	mov    %eax,(%rsp)
  40144c:	8b 44 24 20          	mov    0x20(%rsp),%eax
  401450:	69 c0 5d 10 00 00    	imul   $0x105d,%eax,%eax
  401456:	89 44 24 20          	mov    %eax,0x20(%rsp)
  40145a:	8b 44 24 0c          	mov    0xc(%rsp),%eax
  40145e:	69 c0 6e 81 00 00    	imul   $0x816e,%eax,%eax
  401464:	89 44 24 0c          	mov    %eax,0xc(%rsp)
  401468:	8b 44 24 20          	mov    0x20(%rsp),%eax
  40146c:	69 c0 32 1b 00 00    	imul   $0x1b32,%eax,%eax
  401472:	89 44 24 20          	mov    %eax,0x20(%rsp)
  401476:	8b 44 24 08          	mov    0x8(%rsp),%eax
  40147a:	69 c0 7e e9 00 00    	imul   $0xe97e,%eax,%eax
  401480:	89 44 24 08          	mov    %eax,0x8(%rsp)
  401484:	8b 44 24 1c          	mov    0x1c(%rsp),%eax
  401488:	69 c0 c7 79 00 00    	imul   $0x79c7,%eax,%eax
  40148e:	89 44 24 1c          	mov    %eax,0x1c(%rsp)
  401492:	8b 44 24 0c          	mov    0xc(%rsp),%eax
  401496:	69 c0 2c 3e 00 00    	imul   $0x3e2c,%eax,%eax
  40149c:	89 44 24 0c          	mov    %eax,0xc(%rsp)
  4014a0:	8b 44 24 10          	mov    0x10(%rsp),%eax
  4014a4:	69 c0 4c 8a 00 00    	imul   $0x8a4c,%eax,%eax
  4014aa:	89 44 24 10          	mov    %eax,0x10(%rsp)
  4014ae:	8b 44 24 1c          	mov    0x1c(%rsp),%eax
  4014b2:	69 c0 39 e8 00 00    	imul   $0xe839,%eax,%eax
  4014b8:	89 44 24 1c          	mov    %eax,0x1c(%rsp)
  4014bc:	8b 44 24 10          	mov    0x10(%rsp),%eax
  4014c0:	69 c0 0c 35 00 00    	imul   $0x350c,%eax,%eax
  4014c6:	89 44 24 10          	mov    %eax,0x10(%rsp)
  4014ca:	8b 44 24 04          	mov    0x4(%rsp),%eax
  4014ce:	69 c0 95 7b 00 00    	imul   $0x7b95,%eax,%eax
  4014d4:	89 44 24 04          	mov    %eax,0x4(%rsp)
  4014d8:	8b 44 24 1c          	mov    0x1c(%rsp),%eax
  4014dc:	69 c0 b4 8a 00 00    	imul   $0x8ab4,%eax,%eax
  4014e2:	89 44 24 1c          	mov    %eax,0x1c(%rsp)
  4014e6:	8b 44 24 10          	mov    0x10(%rsp),%eax
  4014ea:	69 c0 42 f9 00 00    	imul   $0xf942,%eax,%eax
  4014f0:	89 44 24 10          	mov    %eax,0x10(%rsp)
  4014f4:	8b 44 24 14          	mov    0x14(%rsp),%eax
  4014f8:	69 c0 3f cc 00 00    	imul   $0xcc3f,%eax,%eax
  4014fe:	89 44 24 14          	mov    %eax,0x14(%rsp)
  401502:	8b 44 24 04          	mov    0x4(%rsp),%eax
  401506:	69 c0 56 28 00 00    	imul   $0x2856,%eax,%eax
  40150c:	89 44 24 04          	mov    %eax,0x4(%rsp)
  401510:	8b 44 24 10          	mov    0x10(%rsp),%eax
  401514:	69 c0 29 7b 00 00    	imul   $0x7b29,%eax,%eax
  40151a:	89 44 24 10          	mov    %eax,0x10(%rsp)
  40151e:	8b 04 24             	mov    (%rsp),%eax
  401521:	69 c0 37 e3 00 00    	imul   $0xe337,%eax,%eax
  401527:	89 04 24             	mov    %eax,(%rsp)
  40152a:	8b 04 24             	mov    (%rsp),%eax
  40152d:	69 c0 0a 68 00 00    	imul   $0x680a,%eax,%eax
  401533:	89 04 24             	mov    %eax,(%rsp)
  401536:	8b 44 24 14          	mov    0x14(%rsp),%eax
  40153a:	69 c0 01 31 00 00    	imul   $0x3101,%eax,%eax
  401540:	89 44 24 14          	mov    %eax,0x14(%rsp)
  401544:	8b 44 24 04          	mov    0x4(%rsp),%eax
  401548:	69 c0 fe b4 00 00    	imul   $0xb4fe,%eax,%eax
  40154e:	89 44 24 04          	mov    %eax,0x4(%rsp)
  401552:	8b 44 24 24          	mov    0x24(%rsp),%eax
  401556:	69 c0 a3 f0 00 00    	imul   $0xf0a3,%eax,%eax
  40155c:	89 44 24 24          	mov    %eax,0x24(%rsp)
  401560:	8b 44 24 04          	mov    0x4(%rsp),%eax
  401564:	69 c0 10 48 00 00    	imul   $0x4810,%eax,%eax
  40156a:	89 44 24 04          	mov    %eax,0x4(%rsp)
  40156e:	8b 44 24 0c          	mov    0xc(%rsp),%eax
  401572:	69 c0 14 74 00 00    	imul   $0x7414,%eax,%eax
  401578:	89 44 24 0c          	mov    %eax,0xc(%rsp)
  40157c:	8b 44 24 24          	mov    0x24(%rsp),%eax
  401580:	69 c0 87 65 00 00    	imul   $0x6587,%eax,%eax
  401586:	89 44 24 24          	mov    %eax,0x24(%rsp)
  40158a:	8b 44 24 0c          	mov    0xc(%rsp),%eax
  40158e:	69 c0 60 93 00 00    	imul   $0x9360,%eax,%eax
  401594:	89 44 24 0c          	mov    %eax,0xc(%rsp)
  401598:	8b 44 24 04          	mov    0x4(%rsp),%eax
  40159c:	69 c0 21 f1 00 00    	imul   $0xf121,%eax,%eax
  4015a2:	89 44 24 04          	mov    %eax,0x4(%rsp)
  4015a6:	8b 44 24 1c          	mov    0x1c(%rsp),%eax
  4015aa:	69 c0 d8 26 00 00    	imul   $0x26d8,%eax,%eax
  4015b0:	89 44 24 1c          	mov    %eax,0x1c(%rsp)
  4015b4:	8b 44 24 04          	mov    0x4(%rsp),%eax
  4015b8:	69 c0 bf bf 00 00    	imul   $0xbfbf,%eax,%eax
  4015be:	89 44 24 04          	mov    %eax,0x4(%rsp)
  4015c2:	8b 44 24 10          	mov    0x10(%rsp),%eax
  4015c6:	69 c0 ee ab 00 00    	imul   $0xabee,%eax,%eax
  4015cc:	89 44 24 10          	mov    %eax,0x10(%rsp)
  4015d0:	8b 44 24 08          	mov    0x8(%rsp),%eax
  4015d4:	69 c0 7c a7 00 00    	imul   $0xa77c,%eax,%eax
  4015da:	89 44 24 08          	mov    %eax,0x8(%rsp)
  4015de:	8b 44 24 24          	mov    0x24(%rsp),%eax
  4015e2:	69 c0 37 51 00 00    	imul   $0x5137,%eax,%eax
  4015e8:	89 44 24 24          	mov    %eax,0x24(%rsp)
  4015ec:	8b 04 24             	mov    (%rsp),%eax
  4015ef:	69 c0 ae 8b 00 00    	imul   $0x8bae,%eax,%eax
  4015f5:	89 04 24             	mov    %eax,(%rsp)
  4015f8:	8b 04 24             	mov    (%rsp),%eax
  4015fb:	69 c0 2b ae 00 00    	imul   $0xae2b,%eax,%eax
  401601:	89 04 24             	mov    %eax,(%rsp)
  401604:	8b 44 24 10          	mov    0x10(%rsp),%eax
  401608:	69 c0 14 99 00 00    	imul   $0x9914,%eax,%eax
  40160e:	89 44 24 10          	mov    %eax,0x10(%rsp)
  401612:	8b 44 24 08          	mov    0x8(%rsp),%eax
  401616:	69 c0 f5 76 00 00    	imul   $0x76f5,%eax,%eax
  40161c:	89 44 24 08          	mov    %eax,0x8(%rsp)
  401620:	8b 44 24 10          	mov    0x10(%rsp),%eax
  401624:	69 c0 ab f9 00 00    	imul   $0xf9ab,%eax,%eax
  40162a:	89 44 24 10          	mov    %eax,0x10(%rsp)
  40162e:	8b 44 24 1c          	mov    0x1c(%rsp),%eax
  401632:	69 c0 d7 7c 00 00    	imul   $0x7cd7,%eax,%eax
  401638:	89 44 24 1c          	mov    %eax,0x1c(%rsp)
  40163c:	8b 44 24 0c          	mov    0xc(%rsp),%eax
  401640:	69 c0 67 96 00 00    	imul   $0x9667,%eax,%eax
  401646:	89 44 24 0c          	mov    %eax,0xc(%rsp)
  40164a:	8b 44 24 04          	mov    0x4(%rsp),%eax
  40164e:	69 c0 18 14 00 00    	imul   $0x1418,%eax,%eax
  401654:	89 44 24 04          	mov    %eax,0x4(%rsp)
  401658:	8b 44 24 08          	mov    0x8(%rsp),%eax
  40165c:	69 c0 39 4d 00 00    	imul   $0x4d39,%eax,%eax
  401662:	89 44 24 08          	mov    %eax,0x8(%rsp)
  401666:	8b 44 24 20          	mov    0x20(%rsp),%eax
  40166a:	69 c0 82 96 00 00    	imul   $0x9682,%eax,%eax
  401670:	89 44 24 20          	mov    %eax,0x20(%rsp)
  401674:	8b 44 24 04          	mov    0x4(%rsp),%eax
  401678:	69 c0 6e b6 00 00    	imul   $0xb66e,%eax,%eax
  40167e:	89 44 24 04          	mov    %eax,0x4(%rsp)
  401682:	8b 44 24 1c          	mov    0x1c(%rsp),%eax
  401686:	69 c0 30 ba 00 00    	imul   $0xba30,%eax,%eax
  40168c:	89 44 24 1c          	mov    %eax,0x1c(%rsp)
  401690:	8b 44 24 08          	mov    0x8(%rsp),%eax
  401694:	69 c0 76 dd 00 00    	imul   $0xdd76,%eax,%eax
  40169a:	89 44 24 08          	mov    %eax,0x8(%rsp)
  40169e:	8b 04 24             	mov    (%rsp),%eax
  4016a1:	69 c0 2b 02 00 00    	imul   $0x22b,%eax,%eax
  4016a7:	89 04 24             	mov    %eax,(%rsp)
  4016aa:	8b 44 24 20          	mov    0x20(%rsp),%eax
  4016ae:	69 c0 62 3a 00 00    	imul   $0x3a62,%eax,%eax
  4016b4:	89 44 24 20          	mov    %eax,0x20(%rsp)
  4016b8:	8b 04 24             	mov    (%rsp),%eax
  4016bb:	69 c0 97 a7 00 00    	imul   $0xa797,%eax,%eax
  4016c1:	89 04 24             	mov    %eax,(%rsp)
  4016c4:	8b 04 24             	mov    (%rsp),%eax
  4016c7:	69 c0 d0 87 00 00    	imul   $0x87d0,%eax,%eax
  4016cd:	89 04 24             	mov    %eax,(%rsp)
  4016d0:	8b 44 24 04          	mov    0x4(%rsp),%eax
  4016d4:	69 c0 c8 b9 00 00    	imul   $0xb9c8,%eax,%eax
  4016da:	89 44 24 04          	mov    %eax,0x4(%rsp)
  4016de:	8b 44 24 20          	mov    0x20(%rsp),%eax
  4016e2:	69 c0 ee 34 00 00    	imul   $0x34ee,%eax,%eax
  4016e8:	89 44 24 20          	mov    %eax,0x20(%rsp)
  4016ec:	8b 44 24 0c          	mov    0xc(%rsp),%eax
  4016f0:	69 c0 f7 6e 00 00    	imul   $0x6ef7,%eax,%eax
  4016f6:	89 44 24 0c          	mov    %eax,0xc(%rsp)
  4016fa:	8b 44 24 1c          	mov    0x1c(%rsp),%eax
  4016fe:	69 c0 56 98 00 00    	imul   $0x9856,%eax,%eax
  401704:	89 44 24 1c          	mov    %eax,0x1c(%rsp)
  401708:	8b 04 24             	mov    (%rsp),%eax
  40170b:	69 c0 54 70 00 00    	imul   $0x7054,%eax,%eax
  401711:	89 04 24             	mov    %eax,(%rsp)
  401714:	8b 44 24 0c          	mov    0xc(%rsp),%eax
  401718:	69 c0 ba dc 00 00    	imul   $0xdcba,%eax,%eax
  40171e:	89 44 24 0c          	mov    %eax,0xc(%rsp)
  401722:	8b 44 24 14          	mov    0x14(%rsp),%eax
  401726:	69 c0 ad 2a 00 00    	imul   $0x2aad,%eax,%eax
  40172c:	89 44 24 14          	mov    %eax,0x14(%rsp)
  401730:	8b 44 24 24          	mov    0x24(%rsp),%eax
  401734:	69 c0 e5 2b 00 00    	imul   $0x2be5,%eax,%eax
  40173a:	89 44 24 24          	mov    %eax,0x24(%rsp)
  40173e:	8b 44 24 04          	mov    0x4(%rsp),%eax
  401742:	69 c0 4e 68 00 00    	imul   $0x684e,%eax,%eax
  401748:	89 44 24 04          	mov    %eax,0x4(%rsp)
  40174c:	8b 44 24 08          	mov    0x8(%rsp),%eax
  401750:	69 c0 8a 7e 00 00    	imul   $0x7e8a,%eax,%eax
  401756:	89 44 24 08          	mov    %eax,0x8(%rsp)
  40175a:	8b 44 24 10          	mov    0x10(%rsp),%eax
  40175e:	69 c0 80 58 00 00    	imul   $0x5880,%eax,%eax
  401764:	89 44 24 10          	mov    %eax,0x10(%rsp)
  401768:	8b 44 24 24          	mov    0x24(%rsp),%eax
  40176c:	69 c0 9c 88 00 00    	imul   $0x889c,%eax,%eax
  401772:	89 44 24 24          	mov    %eax,0x24(%rsp)
  401776:	8b 44 24 20          	mov    0x20(%rsp),%eax
  40177a:	69 c0 f2 e0 00 00    	imul   $0xe0f2,%eax,%eax
  401780:	89 44 24 20          	mov    %eax,0x20(%rsp)
  401784:	8b 44 24 14          	mov    0x14(%rsp),%eax
  401788:	69 c0 0d ae 00 00    	imul   $0xae0d,%eax,%eax
  40178e:	89 44 24 14          	mov    %eax,0x14(%rsp)
  401792:	8b 44 24 20          	mov    0x20(%rsp),%eax
  401796:	69 c0 0e 89 00 00    	imul   $0x890e,%eax,%eax
  40179c:	89 44 24 20          	mov    %eax,0x20(%rsp)
  4017a0:	8b 44 24 10          	mov    0x10(%rsp),%eax
  4017a4:	69 c0 4b de 00 00    	imul   $0xde4b,%eax,%eax
  4017aa:	89 44 24 10          	mov    %eax,0x10(%rsp)
  4017ae:	8b 44 24 14          	mov    0x14(%rsp),%eax
  4017b2:	69 c0 c3 56 00 00    	imul   $0x56c3,%eax,%eax
  4017b8:	89 44 24 14          	mov    %eax,0x14(%rsp)
  4017bc:	8b 44 24 18          	mov    0x18(%rsp),%eax
  4017c0:	69 c0 94 73 00 00    	imul   $0x7394,%eax,%eax
  4017c6:	89 44 24 18          	mov    %eax,0x18(%rsp)
  4017ca:	8b 44 24 24          	mov    0x24(%rsp),%eax
  4017ce:	69 c0 d2 41 00 00    	imul   $0x41d2,%eax,%eax
  4017d4:	89 44 24 24          	mov    %eax,0x24(%rsp)
  4017d8:	8b 44 24 24          	mov    0x24(%rsp),%eax
  4017dc:	69 c0 89 b1 00 00    	imul   $0xb189,%eax,%eax
  4017e2:	89 44 24 24          	mov    %eax,0x24(%rsp)
  4017e6:	8b 44 24 18          	mov    0x18(%rsp),%eax
  4017ea:	69 c0 a9 3a 00 00    	imul   $0x3aa9,%eax,%eax
  4017f0:	89 44 24 18          	mov    %eax,0x18(%rsp)
  4017f4:	8b 44 24 08          	mov    0x8(%rsp),%eax
  4017f8:	69 c0 94 36 00 00    	imul   $0x3694,%eax,%eax
  4017fe:	89 44 24 08          	mov    %eax,0x8(%rsp)
  401802:	8b 44 24 24          	mov    0x24(%rsp),%eax
  401806:	69 c0 37 b8 00 00    	imul   $0xb837,%eax,%eax
  40180c:	89 44 24 24          	mov    %eax,0x24(%rsp)
  401810:	8b 44 24 1c          	mov    0x1c(%rsp),%eax
  401814:	69 c0 85 26 00 00    	imul   $0x2685,%eax,%eax
  40181a:	89 44 24 1c          	mov    %eax,0x1c(%rsp)
  40181e:	8b 44 24 18          	mov    0x18(%rsp),%eax
  401822:	69 c0 cd 44 00 00    	imul   $0x44cd,%eax,%eax
  401828:	89 44 24 18          	mov    %eax,0x18(%rsp)
  40182c:	8b 44 24 0c          	mov    0xc(%rsp),%eax
  401830:	69 c0 03 43 00 00    	imul   $0x4303,%eax,%eax
  401836:	89 44 24 0c          	mov    %eax,0xc(%rsp)
  40183a:	8b 44 24 14          	mov    0x14(%rsp),%eax
  40183e:	89 c2                	mov    %eax,%edx
  401840:	c1 e2 04             	shl    $0x4,%edx
  401843:	c1 e0 08             	shl    $0x8,%eax
  401846:	01 d0                	add    %edx,%eax
  401848:	89 44 24 14          	mov    %eax,0x14(%rsp)
  40184c:	8b 44 24 1c          	mov    0x1c(%rsp),%eax
  401850:	69 c0 f9 f7 00 00    	imul   $0xf7f9,%eax,%eax
  401856:	89 44 24 1c          	mov    %eax,0x1c(%rsp)
  40185a:	8b 44 24 10          	mov    0x10(%rsp),%eax
  40185e:	69 c0 9d 8e 00 00    	imul   $0x8e9d,%eax,%eax
  401864:	89 44 24 10          	mov    %eax,0x10(%rsp)
  401868:	ba 00 00 00 00       	mov    $0x0,%edx
  40186d:	b8 00 00 00 00       	mov    $0x0,%eax
  401872:	eb 0a                	jmp    40187e <scramble+0x599>
  401874:	89 d1                	mov    %edx,%ecx
  401876:	8b 0c 8c             	mov    (%rsp,%rcx,4),%ecx
  401879:	01 c8                	add    %ecx,%eax
  40187b:	83 c2 01             	add    $0x1,%edx
  40187e:	83 fa 09             	cmp    $0x9,%edx
  401881:	76 f1                	jbe    401874 <scramble+0x58f>
  401883:	48 8b 74 24 28       	mov    0x28(%rsp),%rsi
  401888:	64 48 33 34 25 28 00 	xor    %fs:0x28,%rsi
  40188f:	00 00 
  401891:	74 05                	je     401898 <scramble+0x5b3>
  401893:	e8 08 f4 ff ff       	callq  400ca0 <__stack_chk_fail@plt>
  401898:	48 83 c4 38          	add    $0x38,%rsp
  40189c:	c3                   	retq   

000000000040189d <getbuf>:
  40189d:	48 83 ec 38          	sub    $0x38,%rsp
  4018a1:	48 89 e7             	mov    %rsp,%rdi
  4018a4:	e8 a4 03 00 00       	callq  401c4d <Gets>
  4018a9:	b8 01 00 00 00       	mov    $0x1,%eax
  4018ae:	48 83 c4 38          	add    $0x38,%rsp
  4018b2:	c3                   	retq   

00000000004018b3 <touch1>:
  4018b3:	48 83 ec 08          	sub    $0x8,%rsp
  4018b7:	c7 05 3b 3c 20 00 01 	movl   $0x1,0x203c3b(%rip)        # 6054fc <vlevel>
  4018be:	00 00 00 
  4018c1:	bf de 32 40 00       	mov    $0x4032de,%edi
  4018c6:	e8 b5 f3 ff ff       	callq  400c80 <puts@plt>
  4018cb:	bf 01 00 00 00       	mov    $0x1,%edi
  4018d0:	e8 bd 05 00 00       	callq  401e92 <validate>
  4018d5:	bf 00 00 00 00       	mov    $0x0,%edi
  4018da:	e8 21 f5 ff ff       	callq  400e00 <exit@plt>

00000000004018df <touch2>:
  4018df:	48 83 ec 08          	sub    $0x8,%rsp
  4018e3:	89 fa                	mov    %edi,%edx
  4018e5:	c7 05 0d 3c 20 00 02 	movl   $0x2,0x203c0d(%rip)        # 6054fc <vlevel>
  4018ec:	00 00 00 
  4018ef:	39 3d 0f 3c 20 00    	cmp    %edi,0x203c0f(%rip)        # 605504 <cookie>
  4018f5:	75 20                	jne    401917 <touch2+0x38>
  4018f7:	be 00 33 40 00       	mov    $0x403300,%esi
  4018fc:	bf 01 00 00 00       	mov    $0x1,%edi
  401901:	b8 00 00 00 00       	mov    $0x0,%eax
  401906:	e8 a5 f4 ff ff       	callq  400db0 <__printf_chk@plt>
  40190b:	bf 02 00 00 00       	mov    $0x2,%edi
  401910:	e8 7d 05 00 00       	callq  401e92 <validate>
  401915:	eb 1e                	jmp    401935 <touch2+0x56>
  401917:	be 28 33 40 00       	mov    $0x403328,%esi
  40191c:	bf 01 00 00 00       	mov    $0x1,%edi
  401921:	b8 00 00 00 00       	mov    $0x0,%eax
  401926:	e8 85 f4 ff ff       	callq  400db0 <__printf_chk@plt>
  40192b:	bf 02 00 00 00       	mov    $0x2,%edi
  401930:	e8 1f 06 00 00       	callq  401f54 <fail>
  401935:	bf 00 00 00 00       	mov    $0x0,%edi
  40193a:	e8 c1 f4 ff ff       	callq  400e00 <exit@plt>

000000000040193f <hexmatch>:
  40193f:	41 54                	push   %r12
  401941:	55                   	push   %rbp
  401942:	53                   	push   %rbx
  401943:	48 83 c4 80          	add    $0xffffffffffffff80,%rsp
  401947:	89 fd                	mov    %edi,%ebp
  401949:	48 89 f3             	mov    %rsi,%rbx
  40194c:	64 48 8b 04 25 28 00 	mov    %fs:0x28,%rax
  401953:	00 00 
  401955:	48 89 44 24 78       	mov    %rax,0x78(%rsp)
  40195a:	31 c0                	xor    %eax,%eax
  40195c:	e8 0f f4 ff ff       	callq  400d70 <random@plt>
  401961:	48 89 c1             	mov    %rax,%rcx
  401964:	48 ba 0b d7 a3 70 3d 	movabs $0xa3d70a3d70a3d70b,%rdx
  40196b:	0a d7 a3 
  40196e:	48 f7 ea             	imul   %rdx
  401971:	48 01 ca             	add    %rcx,%rdx
  401974:	48 c1 fa 06          	sar    $0x6,%rdx
  401978:	48 89 c8             	mov    %rcx,%rax
  40197b:	48 c1 f8 3f          	sar    $0x3f,%rax
  40197f:	48 29 c2             	sub    %rax,%rdx
  401982:	48 8d 04 92          	lea    (%rdx,%rdx,4),%rax
  401986:	48 8d 14 80          	lea    (%rax,%rax,4),%rdx
  40198a:	48 8d 04 95 00 00 00 	lea    0x0(,%rdx,4),%rax
  401991:	00 
  401992:	48 29 c1             	sub    %rax,%rcx
  401995:	4c 8d 24 0c          	lea    (%rsp,%rcx,1),%r12
  401999:	41 89 e8             	mov    %ebp,%r8d
  40199c:	b9 fb 32 40 00       	mov    $0x4032fb,%ecx
  4019a1:	48 c7 c2 ff ff ff ff 	mov    $0xffffffffffffffff,%rdx
  4019a8:	be 01 00 00 00       	mov    $0x1,%esi
  4019ad:	4c 89 e7             	mov    %r12,%rdi
  4019b0:	b8 00 00 00 00       	mov    $0x0,%eax
  4019b5:	e8 76 f4 ff ff       	callq  400e30 <__sprintf_chk@plt>
  4019ba:	ba 09 00 00 00       	mov    $0x9,%edx
  4019bf:	4c 89 e6             	mov    %r12,%rsi
  4019c2:	48 89 df             	mov    %rbx,%rdi
  4019c5:	e8 96 f2 ff ff       	callq  400c60 <strncmp@plt>
  4019ca:	85 c0                	test   %eax,%eax
  4019cc:	0f 94 c0             	sete   %al
  4019cf:	48 8b 5c 24 78       	mov    0x78(%rsp),%rbx
  4019d4:	64 48 33 1c 25 28 00 	xor    %fs:0x28,%rbx
  4019db:	00 00 
  4019dd:	74 05                	je     4019e4 <hexmatch+0xa5>
  4019df:	e8 bc f2 ff ff       	callq  400ca0 <__stack_chk_fail@plt>
  4019e4:	0f b6 c0             	movzbl %al,%eax
  4019e7:	48 83 ec 80          	sub    $0xffffffffffffff80,%rsp
  4019eb:	5b                   	pop    %rbx
  4019ec:	5d                   	pop    %rbp
  4019ed:	41 5c                	pop    %r12
  4019ef:	c3                   	retq   

00000000004019f0 <touch3>:
  4019f0:	53                   	push   %rbx
  4019f1:	48 89 fb             	mov    %rdi,%rbx
  4019f4:	c7 05 fe 3a 20 00 03 	movl   $0x3,0x203afe(%rip)        # 6054fc <vlevel>
  4019fb:	00 00 00 
  4019fe:	48 89 fe             	mov    %rdi,%rsi
  401a01:	8b 3d fd 3a 20 00    	mov    0x203afd(%rip),%edi        # 605504 <cookie>
  401a07:	e8 33 ff ff ff       	callq  40193f <hexmatch>
  401a0c:	85 c0                	test   %eax,%eax
  401a0e:	74 23                	je     401a33 <touch3+0x43>
  401a10:	48 89 da             	mov    %rbx,%rdx
  401a13:	be 50 33 40 00       	mov    $0x403350,%esi
  401a18:	bf 01 00 00 00       	mov    $0x1,%edi
  401a1d:	b8 00 00 00 00       	mov    $0x0,%eax
  401a22:	e8 89 f3 ff ff       	callq  400db0 <__printf_chk@plt>
  401a27:	bf 03 00 00 00       	mov    $0x3,%edi
  401a2c:	e8 61 04 00 00       	callq  401e92 <validate>
  401a31:	eb 21                	jmp    401a54 <touch3+0x64>
  401a33:	48 89 da             	mov    %rbx,%rdx
  401a36:	be 78 33 40 00       	mov    $0x403378,%esi
  401a3b:	bf 01 00 00 00       	mov    $0x1,%edi
  401a40:	b8 00 00 00 00       	mov    $0x0,%eax
  401a45:	e8 66 f3 ff ff       	callq  400db0 <__printf_chk@plt>
  401a4a:	bf 03 00 00 00       	mov    $0x3,%edi
  401a4f:	e8 00 05 00 00       	callq  401f54 <fail>
  401a54:	bf 00 00 00 00       	mov    $0x0,%edi
  401a59:	e8 a2 f3 ff ff       	callq  400e00 <exit@plt>

0000000000401a5e <test>:
  401a5e:	48 83 ec 08          	sub    $0x8,%rsp
  401a62:	b8 00 00 00 00       	mov    $0x0,%eax
  401a67:	e8 31 fe ff ff       	callq  40189d <getbuf>
  401a6c:	89 c2                	mov    %eax,%edx
  401a6e:	be a0 33 40 00       	mov    $0x4033a0,%esi
  401a73:	bf 01 00 00 00       	mov    $0x1,%edi
  401a78:	b8 00 00 00 00       	mov    $0x0,%eax
  401a7d:	e8 2e f3 ff ff       	callq  400db0 <__printf_chk@plt>
  401a82:	48 83 c4 08          	add    $0x8,%rsp
  401a86:	c3                   	retq   

0000000000401a87 <start_farm>:
  401a87:	b8 01 00 00 00       	mov    $0x1,%eax
  401a8c:	c3                   	retq   

0000000000401a8d <getval_498>:
  401a8d:	b8 30 58 90 c3       	mov    $0xc3905830,%eax
  401a92:	c3                   	retq   

0000000000401a93 <setval_235>:
  401a93:	c7 07 48 89 c7 c3    	movl   $0xc3c78948,(%rdi)
  401a99:	c3                   	retq   

0000000000401a9a <getval_461>:
  401a9a:	b8 d8 90 c3 d5       	mov    $0xd5c390d8,%eax
  401a9f:	c3                   	retq   

0000000000401aa0 <setval_370>:
  401aa0:	c7 07 58 90 94 c3    	movl   $0xc3949058,(%rdi)
  401aa6:	c3                   	retq   

0000000000401aa7 <setval_374>:
  401aa7:	c7 07 48 89 c7 90    	movl   $0x90c78948,(%rdi)
  401aad:	c3                   	retq   

0000000000401aae <getval_296>:
  401aae:	b8 48 99 c7 90       	mov    $0x90c79948,%eax
  401ab3:	c3                   	retq   

0000000000401ab4 <addval_102>:
  401ab4:	8d 87 58 90 90 c3    	lea    -0x3c6f6fa8(%rdi),%eax
  401aba:	c3                   	retq   

0000000000401abb <setval_238>:
  401abb:	c7 07 48 89 c7 94    	movl   $0x94c78948,(%rdi)
  401ac1:	c3                   	retq   

0000000000401ac2 <mid_farm>:
  401ac2:	b8 01 00 00 00       	mov    $0x1,%eax
  401ac7:	c3                   	retq   

0000000000401ac8 <add_xy>:
  401ac8:	48 8d 04 37          	lea    (%rdi,%rsi,1),%rax
  401acc:	c3                   	retq   

0000000000401acd <getval_172>:
  401acd:	b8 09 ca 08 c0       	mov    $0xc008ca09,%eax
  401ad2:	c3                   	retq   

0000000000401ad3 <setval_239>:
  401ad3:	c7 07 89 c1 08 db    	movl   $0xdb08c189,(%rdi)
  401ad9:	c3                   	retq   

0000000000401ada <setval_202>:
  401ada:	c7 07 48 89 e0 c3    	movl   $0xc3e08948,(%rdi)
  401ae0:	c3                   	retq   

0000000000401ae1 <setval_283>:
  401ae1:	c7 07 48 a9 e0 c3    	movl   $0xc3e0a948,(%rdi)
  401ae7:	c3                   	retq   

0000000000401ae8 <setval_247>:
  401ae8:	c7 07 89 c1 28 d2    	movl   $0xd228c189,(%rdi)
  401aee:	c3                   	retq   

0000000000401aef <setval_407>:
  401aef:	c7 07 89 d6 38 db    	movl   $0xdb38d689,(%rdi)
  401af5:	c3                   	retq   

0000000000401af6 <setval_402>:
  401af6:	c7 07 89 ca a4 c9    	movl   $0xc9a4ca89,(%rdi)
  401afc:	c3                   	retq   

0000000000401afd <getval_385>:
  401afd:	b8 09 ca 20 db       	mov    $0xdb20ca09,%eax
  401b02:	c3                   	retq   

0000000000401b03 <addval_165>:
  401b03:	8d 87 89 c1 91 c3    	lea    -0x3c6e3e77(%rdi),%eax
  401b09:	c3                   	retq   

0000000000401b0a <addval_467>:
  401b0a:	8d 87 89 c1 a4 c9    	lea    -0x365b3e77(%rdi),%eax
  401b10:	c3                   	retq   

0000000000401b11 <setval_262>:
  401b11:	c7 07 89 ca 18 d2    	movl   $0xd218ca89,(%rdi)
  401b17:	c3                   	retq   

0000000000401b18 <setval_146>:
  401b18:	c7 07 fd 89 ca c2    	movl   $0xc2ca89fd,(%rdi)
  401b1e:	c3                   	retq   

0000000000401b1f <getval_237>:
  401b1f:	b8 8d d6 90 c3       	mov    $0xc390d68d,%eax
  401b24:	c3                   	retq   

0000000000401b25 <addval_353>:
  401b25:	8d 87 e5 48 89 e0    	lea    -0x1f76b71b(%rdi),%eax
  401b2b:	c3                   	retq   

0000000000401b2c <setval_468>:
  401b2c:	c7 07 81 c1 84 c0    	movl   $0xc084c181,(%rdi)
  401b32:	c3                   	retq   

0000000000401b33 <addval_244>:
  401b33:	8d 87 48 89 e0 c1    	lea    -0x3e1f76b8(%rdi),%eax
  401b39:	c3                   	retq   

0000000000401b3a <getval_129>:
  401b3a:	b8 89 ca 08 c9       	mov    $0xc908ca89,%eax
  401b3f:	c3                   	retq   

0000000000401b40 <addval_460>:
  401b40:	8d 87 59 89 d6 c2    	lea    -0x3d2976a7(%rdi),%eax
  401b46:	c3                   	retq   

0000000000401b47 <addval_471>:
  401b47:	8d 87 89 c1 28 c9    	lea    -0x36d73e77(%rdi),%eax
  401b4d:	c3                   	retq   

0000000000401b4e <getval_400>:
  401b4e:	b8 8d ca 38 c9       	mov    $0xc938ca8d,%eax
  401b53:	c3                   	retq   

0000000000401b54 <addval_383>:
  401b54:	8d 87 89 c1 c3 9e    	lea    -0x613c3e77(%rdi),%eax
  401b5a:	c3                   	retq   

0000000000401b5b <setval_232>:
  401b5b:	c7 07 48 89 e0 c7    	movl   $0xc7e08948,(%rdi)
  401b61:	c3                   	retq   

0000000000401b62 <addval_392>:
  401b62:	8d 87 48 89 e0 c2    	lea    -0x3d1f76b8(%rdi),%eax
  401b68:	c3                   	retq   

0000000000401b69 <getval_429>:
  401b69:	b8 a9 d6 08 c0       	mov    $0xc008d6a9,%eax
  401b6e:	c3                   	retq   

0000000000401b6f <addval_440>:
  401b6f:	8d 87 48 89 e0 91    	lea    -0x6e1f76b8(%rdi),%eax
  401b75:	c3                   	retq   

0000000000401b76 <addval_245>:
  401b76:	8d 87 8b d6 20 db    	lea    -0x24df2975(%rdi),%eax
  401b7c:	c3                   	retq   

0000000000401b7d <addval_438>:
  401b7d:	8d 87 48 89 e0 92    	lea    -0x6d1f76b8(%rdi),%eax
  401b83:	c3                   	retq   

0000000000401b84 <addval_236>:
  401b84:	8d 87 89 ca 84 d2    	lea    -0x2d7b3577(%rdi),%eax
  401b8a:	c3                   	retq   

0000000000401b8b <addval_413>:
  401b8b:	8d 87 98 c9 d6 c3    	lea    -0x3c293668(%rdi),%eax
  401b91:	c3                   	retq   

0000000000401b92 <setval_290>:
  401b92:	c7 07 89 c1 28 d2    	movl   $0xd228c189,(%rdi)
  401b98:	c3                   	retq   

0000000000401b99 <addval_434>:
  401b99:	8d 87 89 d6 90 c3    	lea    -0x3c6f2977(%rdi),%eax
  401b9f:	c3                   	retq   

0000000000401ba0 <setval_226>:
  401ba0:	c7 07 c9 d6 20 db    	movl   $0xdb20d6c9,(%rdi)
  401ba6:	c3                   	retq   

0000000000401ba7 <end_farm>:
  401ba7:	b8 01 00 00 00       	mov    $0x1,%eax
  401bac:	c3                   	retq   

0000000000401bad <save_char>:
  401bad:	8b 05 71 45 20 00    	mov    0x204571(%rip),%eax        # 606124 <gets_cnt>
  401bb3:	3d ff 03 00 00       	cmp    $0x3ff,%eax
  401bb8:	7f 49                	jg     401c03 <save_char+0x56>
  401bba:	8d 14 40             	lea    (%rax,%rax,2),%edx
  401bbd:	89 f9                	mov    %edi,%ecx
  401bbf:	c0 e9 04             	shr    $0x4,%cl
  401bc2:	83 e1 0f             	and    $0xf,%ecx
  401bc5:	0f b6 b1 c0 36 40 00 	movzbl 0x4036c0(%rcx),%esi
  401bcc:	48 63 ca             	movslq %edx,%rcx
  401bcf:	40 88 b1 20 55 60 00 	mov    %sil,0x605520(%rcx)
  401bd6:	8d 4a 01             	lea    0x1(%rdx),%ecx
  401bd9:	83 e7 0f             	and    $0xf,%edi
  401bdc:	0f b6 b7 c0 36 40 00 	movzbl 0x4036c0(%rdi),%esi
  401be3:	48 63 c9             	movslq %ecx,%rcx
  401be6:	40 88 b1 20 55 60 00 	mov    %sil,0x605520(%rcx)
  401bed:	83 c2 02             	add    $0x2,%edx
  401bf0:	48 63 d2             	movslq %edx,%rdx
  401bf3:	c6 82 20 55 60 00 20 	movb   $0x20,0x605520(%rdx)
  401bfa:	83 c0 01             	add    $0x1,%eax
  401bfd:	89 05 21 45 20 00    	mov    %eax,0x204521(%rip)        # 606124 <gets_cnt>
  401c03:	f3 c3                	repz retq 

0000000000401c05 <save_term>:
  401c05:	8b 05 19 45 20 00    	mov    0x204519(%rip),%eax        # 606124 <gets_cnt>
  401c0b:	8d 04 40             	lea    (%rax,%rax,2),%eax
  401c0e:	48 98                	cltq   
  401c10:	c6 80 20 55 60 00 00 	movb   $0x0,0x605520(%rax)
  401c17:	c3                   	retq   

0000000000401c18 <check_fail>:
  401c18:	48 83 ec 08          	sub    $0x8,%rsp
  401c1c:	0f be 15 05 45 20 00 	movsbl 0x204505(%rip),%edx        # 606128 <target_prefix>
  401c23:	41 b8 20 55 60 00    	mov    $0x605520,%r8d
  401c29:	8b 0d c9 38 20 00    	mov    0x2038c9(%rip),%ecx        # 6054f8 <check_level>
  401c2f:	be c3 33 40 00       	mov    $0x4033c3,%esi
  401c34:	bf 01 00 00 00       	mov    $0x1,%edi
  401c39:	b8 00 00 00 00       	mov    $0x0,%eax
  401c3e:	e8 6d f1 ff ff       	callq  400db0 <__printf_chk@plt>
  401c43:	bf 01 00 00 00       	mov    $0x1,%edi
  401c48:	e8 b3 f1 ff ff       	callq  400e00 <exit@plt>

0000000000401c4d <Gets>:
  401c4d:	41 54                	push   %r12
  401c4f:	55                   	push   %rbp
  401c50:	53                   	push   %rbx
  401c51:	49 89 fc             	mov    %rdi,%r12
  401c54:	c7 05 c6 44 20 00 00 	movl   $0x0,0x2044c6(%rip)        # 606124 <gets_cnt>
  401c5b:	00 00 00 
  401c5e:	48 89 fb             	mov    %rdi,%rbx
  401c61:	eb 11                	jmp    401c74 <Gets+0x27>
  401c63:	48 8d 6b 01          	lea    0x1(%rbx),%rbp
  401c67:	88 03                	mov    %al,(%rbx)
  401c69:	0f b6 f8             	movzbl %al,%edi
  401c6c:	e8 3c ff ff ff       	callq  401bad <save_char>
  401c71:	48 89 eb             	mov    %rbp,%rbx
  401c74:	48 8b 3d 75 38 20 00 	mov    0x203875(%rip),%rdi        # 6054f0 <infile>
  401c7b:	e8 00 f1 ff ff       	callq  400d80 <_IO_getc@plt>
  401c80:	83 f8 ff             	cmp    $0xffffffff,%eax
  401c83:	74 05                	je     401c8a <Gets+0x3d>
  401c85:	83 f8 0a             	cmp    $0xa,%eax
  401c88:	75 d9                	jne    401c63 <Gets+0x16>
  401c8a:	c6 03 00             	movb   $0x0,(%rbx)
  401c8d:	b8 00 00 00 00       	mov    $0x0,%eax
  401c92:	e8 6e ff ff ff       	callq  401c05 <save_term>
  401c97:	4c 89 e0             	mov    %r12,%rax
  401c9a:	5b                   	pop    %rbx
  401c9b:	5d                   	pop    %rbp
  401c9c:	41 5c                	pop    %r12
  401c9e:	c3                   	retq   

0000000000401c9f <notify_server>:
  401c9f:	53                   	push   %rbx
  401ca0:	48 81 ec 10 40 00 00 	sub    $0x4010,%rsp
  401ca7:	64 48 8b 04 25 28 00 	mov    %fs:0x28,%rax
  401cae:	00 00 
  401cb0:	48 89 84 24 08 40 00 	mov    %rax,0x4008(%rsp)
  401cb7:	00 
  401cb8:	31 c0                	xor    %eax,%eax
  401cba:	83 3d 47 38 20 00 00 	cmpl   $0x0,0x203847(%rip)        # 605508 <is_checker>
  401cc1:	0f 85 aa 01 00 00    	jne    401e71 <notify_server+0x1d2>
  401cc7:	89 fb                	mov    %edi,%ebx
  401cc9:	8b 05 55 44 20 00    	mov    0x204455(%rip),%eax        # 606124 <gets_cnt>
  401ccf:	83 c0 64             	add    $0x64,%eax
  401cd2:	3d 00 20 00 00       	cmp    $0x2000,%eax
  401cd7:	7e 1e                	jle    401cf7 <notify_server+0x58>
  401cd9:	be f8 34 40 00       	mov    $0x4034f8,%esi
  401cde:	bf 01 00 00 00       	mov    $0x1,%edi
  401ce3:	b8 00 00 00 00       	mov    $0x0,%eax
  401ce8:	e8 c3 f0 ff ff       	callq  400db0 <__printf_chk@plt>
  401ced:	bf 01 00 00 00       	mov    $0x1,%edi
  401cf2:	e8 09 f1 ff ff       	callq  400e00 <exit@plt>
  401cf7:	0f be 05 2a 44 20 00 	movsbl 0x20442a(%rip),%eax        # 606128 <target_prefix>
  401cfe:	83 3d 83 37 20 00 00 	cmpl   $0x0,0x203783(%rip)        # 605488 <notify>
  401d05:	74 08                	je     401d0f <notify_server+0x70>
  401d07:	8b 15 f3 37 20 00    	mov    0x2037f3(%rip),%edx        # 605500 <authkey>
  401d0d:	eb 05                	jmp    401d14 <notify_server+0x75>
  401d0f:	ba ff ff ff ff       	mov    $0xffffffff,%edx
  401d14:	85 db                	test   %ebx,%ebx
  401d16:	74 08                	je     401d20 <notify_server+0x81>
  401d18:	41 b9 d9 33 40 00    	mov    $0x4033d9,%r9d
  401d1e:	eb 06                	jmp    401d26 <notify_server+0x87>
  401d20:	41 b9 de 33 40 00    	mov    $0x4033de,%r9d
  401d26:	68 20 55 60 00       	pushq  $0x605520
  401d2b:	56                   	push   %rsi
  401d2c:	50                   	push   %rax
  401d2d:	52                   	push   %rdx
  401d2e:	44 8b 05 13 34 20 00 	mov    0x203413(%rip),%r8d        # 605148 <target_id>
  401d35:	b9 e3 33 40 00       	mov    $0x4033e3,%ecx
  401d3a:	ba 00 20 00 00       	mov    $0x2000,%edx
  401d3f:	be 01 00 00 00       	mov    $0x1,%esi
  401d44:	48 8d 7c 24 20       	lea    0x20(%rsp),%rdi
  401d49:	b8 00 00 00 00       	mov    $0x0,%eax
  401d4e:	e8 dd f0 ff ff       	callq  400e30 <__sprintf_chk@plt>
  401d53:	48 83 c4 20          	add    $0x20,%rsp
  401d57:	83 3d 2a 37 20 00 00 	cmpl   $0x0,0x20372a(%rip)        # 605488 <notify>
  401d5e:	0f 84 81 00 00 00    	je     401de5 <notify_server+0x146>
  401d64:	85 db                	test   %ebx,%ebx
  401d66:	74 6e                	je     401dd6 <notify_server+0x137>
  401d68:	4c 8d 8c 24 00 20 00 	lea    0x2000(%rsp),%r9
  401d6f:	00 
  401d70:	41 b8 00 00 00 00    	mov    $0x0,%r8d
  401d76:	48 89 e1             	mov    %rsp,%rcx
  401d79:	48 8b 15 d0 33 20 00 	mov    0x2033d0(%rip),%rdx        # 605150 <lab>
  401d80:	48 8b 35 d1 33 20 00 	mov    0x2033d1(%rip),%rsi        # 605158 <course>
  401d87:	48 8b 3d b2 33 20 00 	mov    0x2033b2(%rip),%rdi        # 605140 <user_id>
  401d8e:	e8 ef 10 00 00       	callq  402e82 <driver_post>
  401d93:	85 c0                	test   %eax,%eax
  401d95:	79 26                	jns    401dbd <notify_server+0x11e>
  401d97:	48 8d 94 24 00 20 00 	lea    0x2000(%rsp),%rdx
  401d9e:	00 
  401d9f:	be ff 33 40 00       	mov    $0x4033ff,%esi
  401da4:	bf 01 00 00 00       	mov    $0x1,%edi
  401da9:	b8 00 00 00 00       	mov    $0x0,%eax
  401dae:	e8 fd ef ff ff       	callq  400db0 <__printf_chk@plt>
  401db3:	bf 01 00 00 00       	mov    $0x1,%edi
  401db8:	e8 43 f0 ff ff       	callq  400e00 <exit@plt>
  401dbd:	bf 28 35 40 00       	mov    $0x403528,%edi
  401dc2:	e8 b9 ee ff ff       	callq  400c80 <puts@plt>
  401dc7:	bf 0b 34 40 00       	mov    $0x40340b,%edi
  401dcc:	e8 af ee ff ff       	callq  400c80 <puts@plt>
  401dd1:	e9 9b 00 00 00       	jmpq   401e71 <notify_server+0x1d2>
  401dd6:	bf 15 34 40 00       	mov    $0x403415,%edi
  401ddb:	e8 a0 ee ff ff       	callq  400c80 <puts@plt>
  401de0:	e9 8c 00 00 00       	jmpq   401e71 <notify_server+0x1d2>
  401de5:	85 db                	test   %ebx,%ebx
  401de7:	74 07                	je     401df0 <notify_server+0x151>
  401de9:	ba d9 33 40 00       	mov    $0x4033d9,%edx
  401dee:	eb 05                	jmp    401df5 <notify_server+0x156>
  401df0:	ba de 33 40 00       	mov    $0x4033de,%edx
  401df5:	be 60 35 40 00       	mov    $0x403560,%esi
  401dfa:	bf 01 00 00 00       	mov    $0x1,%edi
  401dff:	b8 00 00 00 00       	mov    $0x0,%eax
  401e04:	e8 a7 ef ff ff       	callq  400db0 <__printf_chk@plt>
  401e09:	48 8b 15 30 33 20 00 	mov    0x203330(%rip),%rdx        # 605140 <user_id>
  401e10:	be 1c 34 40 00       	mov    $0x40341c,%esi
  401e15:	bf 01 00 00 00       	mov    $0x1,%edi
  401e1a:	b8 00 00 00 00       	mov    $0x0,%eax
  401e1f:	e8 8c ef ff ff       	callq  400db0 <__printf_chk@plt>
  401e24:	48 8b 15 2d 33 20 00 	mov    0x20332d(%rip),%rdx        # 605158 <course>
  401e2b:	be 29 34 40 00       	mov    $0x403429,%esi
  401e30:	bf 01 00 00 00       	mov    $0x1,%edi
  401e35:	b8 00 00 00 00       	mov    $0x0,%eax
  401e3a:	e8 71 ef ff ff       	callq  400db0 <__printf_chk@plt>
  401e3f:	48 8b 15 0a 33 20 00 	mov    0x20330a(%rip),%rdx        # 605150 <lab>
  401e46:	be 35 34 40 00       	mov    $0x403435,%esi
  401e4b:	bf 01 00 00 00       	mov    $0x1,%edi
  401e50:	b8 00 00 00 00       	mov    $0x0,%eax
  401e55:	e8 56 ef ff ff       	callq  400db0 <__printf_chk@plt>
  401e5a:	48 89 e2             	mov    %rsp,%rdx
  401e5d:	be 3e 34 40 00       	mov    $0x40343e,%esi
  401e62:	bf 01 00 00 00       	mov    $0x1,%edi
  401e67:	b8 00 00 00 00       	mov    $0x0,%eax
  401e6c:	e8 3f ef ff ff       	callq  400db0 <__printf_chk@plt>
  401e71:	48 8b 84 24 08 40 00 	mov    0x4008(%rsp),%rax
  401e78:	00 
  401e79:	64 48 33 04 25 28 00 	xor    %fs:0x28,%rax
  401e80:	00 00 
  401e82:	74 05                	je     401e89 <notify_server+0x1ea>
  401e84:	e8 17 ee ff ff       	callq  400ca0 <__stack_chk_fail@plt>
  401e89:	48 81 c4 10 40 00 00 	add    $0x4010,%rsp
  401e90:	5b                   	pop    %rbx
  401e91:	c3                   	retq   

0000000000401e92 <validate>:
  401e92:	53                   	push   %rbx
  401e93:	89 fb                	mov    %edi,%ebx
  401e95:	83 3d 6c 36 20 00 00 	cmpl   $0x0,0x20366c(%rip)        # 605508 <is_checker>
  401e9c:	74 6b                	je     401f09 <validate+0x77>
  401e9e:	39 3d 58 36 20 00    	cmp    %edi,0x203658(%rip)        # 6054fc <vlevel>
  401ea4:	74 14                	je     401eba <validate+0x28>
  401ea6:	bf 4a 34 40 00       	mov    $0x40344a,%edi
  401eab:	e8 d0 ed ff ff       	callq  400c80 <puts@plt>
  401eb0:	b8 00 00 00 00       	mov    $0x0,%eax
  401eb5:	e8 5e fd ff ff       	callq  401c18 <check_fail>
  401eba:	8b 15 38 36 20 00    	mov    0x203638(%rip),%edx        # 6054f8 <check_level>
  401ec0:	39 d7                	cmp    %edx,%edi
  401ec2:	74 20                	je     401ee4 <validate+0x52>
  401ec4:	89 f9                	mov    %edi,%ecx
  401ec6:	be 88 35 40 00       	mov    $0x403588,%esi
  401ecb:	bf 01 00 00 00       	mov    $0x1,%edi
  401ed0:	b8 00 00 00 00       	mov    $0x0,%eax
  401ed5:	e8 d6 ee ff ff       	callq  400db0 <__printf_chk@plt>
  401eda:	b8 00 00 00 00       	mov    $0x0,%eax
  401edf:	e8 34 fd ff ff       	callq  401c18 <check_fail>
  401ee4:	0f be 15 3d 42 20 00 	movsbl 0x20423d(%rip),%edx        # 606128 <target_prefix>
  401eeb:	41 b8 20 55 60 00    	mov    $0x605520,%r8d
  401ef1:	89 f9                	mov    %edi,%ecx
  401ef3:	be 68 34 40 00       	mov    $0x403468,%esi
  401ef8:	bf 01 00 00 00       	mov    $0x1,%edi
  401efd:	b8 00 00 00 00       	mov    $0x0,%eax
  401f02:	e8 a9 ee ff ff       	callq  400db0 <__printf_chk@plt>
  401f07:	eb 49                	jmp    401f52 <validate+0xc0>
  401f09:	3b 3d ed 35 20 00    	cmp    0x2035ed(%rip),%edi        # 6054fc <vlevel>
  401f0f:	74 18                	je     401f29 <validate+0x97>
  401f11:	bf 4a 34 40 00       	mov    $0x40344a,%edi
  401f16:	e8 65 ed ff ff       	callq  400c80 <puts@plt>
  401f1b:	89 de                	mov    %ebx,%esi
  401f1d:	bf 00 00 00 00       	mov    $0x0,%edi
  401f22:	e8 78 fd ff ff       	callq  401c9f <notify_server>
  401f27:	eb 29                	jmp    401f52 <validate+0xc0>
  401f29:	0f be 0d f8 41 20 00 	movsbl 0x2041f8(%rip),%ecx        # 606128 <target_prefix>
  401f30:	89 fa                	mov    %edi,%edx
  401f32:	be b0 35 40 00       	mov    $0x4035b0,%esi
  401f37:	bf 01 00 00 00       	mov    $0x1,%edi
  401f3c:	b8 00 00 00 00       	mov    $0x0,%eax
  401f41:	e8 6a ee ff ff       	callq  400db0 <__printf_chk@plt>
  401f46:	89 de                	mov    %ebx,%esi
  401f48:	bf 01 00 00 00       	mov    $0x1,%edi
  401f4d:	e8 4d fd ff ff       	callq  401c9f <notify_server>
  401f52:	5b                   	pop    %rbx
  401f53:	c3                   	retq   

0000000000401f54 <fail>:
  401f54:	48 83 ec 08          	sub    $0x8,%rsp
  401f58:	83 3d a9 35 20 00 00 	cmpl   $0x0,0x2035a9(%rip)        # 605508 <is_checker>
  401f5f:	74 0a                	je     401f6b <fail+0x17>
  401f61:	b8 00 00 00 00       	mov    $0x0,%eax
  401f66:	e8 ad fc ff ff       	callq  401c18 <check_fail>
  401f6b:	89 fe                	mov    %edi,%esi
  401f6d:	bf 00 00 00 00       	mov    $0x0,%edi
  401f72:	e8 28 fd ff ff       	callq  401c9f <notify_server>
  401f77:	48 83 c4 08          	add    $0x8,%rsp
  401f7b:	c3                   	retq   

0000000000401f7c <bushandler>:
  401f7c:	48 83 ec 08          	sub    $0x8,%rsp
  401f80:	83 3d 81 35 20 00 00 	cmpl   $0x0,0x203581(%rip)        # 605508 <is_checker>
  401f87:	74 14                	je     401f9d <bushandler+0x21>
  401f89:	bf 7d 34 40 00       	mov    $0x40347d,%edi
  401f8e:	e8 ed ec ff ff       	callq  400c80 <puts@plt>
  401f93:	b8 00 00 00 00       	mov    $0x0,%eax
  401f98:	e8 7b fc ff ff       	callq  401c18 <check_fail>
  401f9d:	bf e8 35 40 00       	mov    $0x4035e8,%edi
  401fa2:	e8 d9 ec ff ff       	callq  400c80 <puts@plt>
  401fa7:	bf 87 34 40 00       	mov    $0x403487,%edi
  401fac:	e8 cf ec ff ff       	callq  400c80 <puts@plt>
  401fb1:	be 00 00 00 00       	mov    $0x0,%esi
  401fb6:	bf 00 00 00 00       	mov    $0x0,%edi
  401fbb:	e8 df fc ff ff       	callq  401c9f <notify_server>
  401fc0:	bf 01 00 00 00       	mov    $0x1,%edi
  401fc5:	e8 36 ee ff ff       	callq  400e00 <exit@plt>

0000000000401fca <seghandler>:
  401fca:	48 83 ec 08          	sub    $0x8,%rsp
  401fce:	83 3d 33 35 20 00 00 	cmpl   $0x0,0x203533(%rip)        # 605508 <is_checker>
  401fd5:	74 14                	je     401feb <seghandler+0x21>
  401fd7:	bf 9d 34 40 00       	mov    $0x40349d,%edi
  401fdc:	e8 9f ec ff ff       	callq  400c80 <puts@plt>
  401fe1:	b8 00 00 00 00       	mov    $0x0,%eax
  401fe6:	e8 2d fc ff ff       	callq  401c18 <check_fail>
  401feb:	bf 08 36 40 00       	mov    $0x403608,%edi
  401ff0:	e8 8b ec ff ff       	callq  400c80 <puts@plt>
  401ff5:	bf 87 34 40 00       	mov    $0x403487,%edi
  401ffa:	e8 81 ec ff ff       	callq  400c80 <puts@plt>
  401fff:	be 00 00 00 00       	mov    $0x0,%esi
  402004:	bf 00 00 00 00       	mov    $0x0,%edi
  402009:	e8 91 fc ff ff       	callq  401c9f <notify_server>
  40200e:	bf 01 00 00 00       	mov    $0x1,%edi
  402013:	e8 e8 ed ff ff       	callq  400e00 <exit@plt>

0000000000402018 <illegalhandler>:
  402018:	48 83 ec 08          	sub    $0x8,%rsp
  40201c:	83 3d e5 34 20 00 00 	cmpl   $0x0,0x2034e5(%rip)        # 605508 <is_checker>
  402023:	74 14                	je     402039 <illegalhandler+0x21>
  402025:	bf b0 34 40 00       	mov    $0x4034b0,%edi
  40202a:	e8 51 ec ff ff       	callq  400c80 <puts@plt>
  40202f:	b8 00 00 00 00       	mov    $0x0,%eax
  402034:	e8 df fb ff ff       	callq  401c18 <check_fail>
  402039:	bf 30 36 40 00       	mov    $0x403630,%edi
  40203e:	e8 3d ec ff ff       	callq  400c80 <puts@plt>
  402043:	bf 87 34 40 00       	mov    $0x403487,%edi
  402048:	e8 33 ec ff ff       	callq  400c80 <puts@plt>
  40204d:	be 00 00 00 00       	mov    $0x0,%esi
  402052:	bf 00 00 00 00       	mov    $0x0,%edi
  402057:	e8 43 fc ff ff       	callq  401c9f <notify_server>
  40205c:	bf 01 00 00 00       	mov    $0x1,%edi
  402061:	e8 9a ed ff ff       	callq  400e00 <exit@plt>

0000000000402066 <sigalrmhandler>:
  402066:	48 83 ec 08          	sub    $0x8,%rsp
  40206a:	83 3d 97 34 20 00 00 	cmpl   $0x0,0x203497(%rip)        # 605508 <is_checker>
  402071:	74 14                	je     402087 <sigalrmhandler+0x21>
  402073:	bf c4 34 40 00       	mov    $0x4034c4,%edi
  402078:	e8 03 ec ff ff       	callq  400c80 <puts@plt>
  40207d:	b8 00 00 00 00       	mov    $0x0,%eax
  402082:	e8 91 fb ff ff       	callq  401c18 <check_fail>
  402087:	ba 05 00 00 00       	mov    $0x5,%edx
  40208c:	be 60 36 40 00       	mov    $0x403660,%esi
  402091:	bf 01 00 00 00       	mov    $0x1,%edi
  402096:	b8 00 00 00 00       	mov    $0x0,%eax
  40209b:	e8 10 ed ff ff       	callq  400db0 <__printf_chk@plt>
  4020a0:	be 00 00 00 00       	mov    $0x0,%esi
  4020a5:	bf 00 00 00 00       	mov    $0x0,%edi
  4020aa:	e8 f0 fb ff ff       	callq  401c9f <notify_server>
  4020af:	bf 01 00 00 00       	mov    $0x1,%edi
  4020b4:	e8 47 ed ff ff       	callq  400e00 <exit@plt>

00000000004020b9 <launch>:
  4020b9:	55                   	push   %rbp
  4020ba:	48 89 e5             	mov    %rsp,%rbp
  4020bd:	48 83 ec 10          	sub    $0x10,%rsp
  4020c1:	48 89 fa             	mov    %rdi,%rdx
  4020c4:	64 48 8b 04 25 28 00 	mov    %fs:0x28,%rax
  4020cb:	00 00 
  4020cd:	48 89 45 f8          	mov    %rax,-0x8(%rbp)
  4020d1:	31 c0                	xor    %eax,%eax
  4020d3:	48 8d 47 1e          	lea    0x1e(%rdi),%rax
  4020d7:	48 83 e0 f0          	and    $0xfffffffffffffff0,%rax
  4020db:	48 29 c4             	sub    %rax,%rsp
  4020de:	48 8d 7c 24 0f       	lea    0xf(%rsp),%rdi
  4020e3:	48 83 e7 f0          	and    $0xfffffffffffffff0,%rdi
  4020e7:	be f4 00 00 00       	mov    $0xf4,%esi
  4020ec:	e8 cf eb ff ff       	callq  400cc0 <memset@plt>
  4020f1:	48 8b 05 a8 33 20 00 	mov    0x2033a8(%rip),%rax        # 6054a0 <stdin@@GLIBC_2.2.5>
  4020f8:	48 39 05 f1 33 20 00 	cmp    %rax,0x2033f1(%rip)        # 6054f0 <infile>
  4020ff:	75 14                	jne    402115 <launch+0x5c>
  402101:	be cc 34 40 00       	mov    $0x4034cc,%esi
  402106:	bf 01 00 00 00       	mov    $0x1,%edi
  40210b:	b8 00 00 00 00       	mov    $0x0,%eax
  402110:	e8 9b ec ff ff       	callq  400db0 <__printf_chk@plt>
  402115:	c7 05 dd 33 20 00 00 	movl   $0x0,0x2033dd(%rip)        # 6054fc <vlevel>
  40211c:	00 00 00 
  40211f:	b8 00 00 00 00       	mov    $0x0,%eax
  402124:	e8 35 f9 ff ff       	callq  401a5e <test>
  402129:	83 3d d8 33 20 00 00 	cmpl   $0x0,0x2033d8(%rip)        # 605508 <is_checker>
  402130:	74 14                	je     402146 <launch+0x8d>
  402132:	bf d9 34 40 00       	mov    $0x4034d9,%edi
  402137:	e8 44 eb ff ff       	callq  400c80 <puts@plt>
  40213c:	b8 00 00 00 00       	mov    $0x0,%eax
  402141:	e8 d2 fa ff ff       	callq  401c18 <check_fail>
  402146:	bf e4 34 40 00       	mov    $0x4034e4,%edi
  40214b:	e8 30 eb ff ff       	callq  400c80 <puts@plt>
  402150:	48 8b 45 f8          	mov    -0x8(%rbp),%rax
  402154:	64 48 33 04 25 28 00 	xor    %fs:0x28,%rax
  40215b:	00 00 
  40215d:	74 05                	je     402164 <launch+0xab>
  40215f:	e8 3c eb ff ff       	callq  400ca0 <__stack_chk_fail@plt>
  402164:	c9                   	leaveq 
  402165:	c3                   	retq   

0000000000402166 <stable_launch>:
  402166:	53                   	push   %rbx
  402167:	48 89 3d 7a 33 20 00 	mov    %rdi,0x20337a(%rip)        # 6054e8 <global_offset>
  40216e:	41 b9 00 00 00 00    	mov    $0x0,%r9d
  402174:	41 b8 00 00 00 00    	mov    $0x0,%r8d
  40217a:	b9 32 01 00 00       	mov    $0x132,%ecx
  40217f:	ba 07 00 00 00       	mov    $0x7,%edx
  402184:	be 00 00 10 00       	mov    $0x100000,%esi
  402189:	bf 00 60 58 55       	mov    $0x55586000,%edi
  40218e:	e8 1d eb ff ff       	callq  400cb0 <mmap@plt>
  402193:	48 89 c3             	mov    %rax,%rbx
  402196:	48 3d 00 60 58 55    	cmp    $0x55586000,%rax
  40219c:	74 37                	je     4021d5 <stable_launch+0x6f>
  40219e:	be 00 00 10 00       	mov    $0x100000,%esi
  4021a3:	48 89 c7             	mov    %rax,%rdi
  4021a6:	e8 f5 eb ff ff       	callq  400da0 <munmap@plt>
  4021ab:	b9 00 60 58 55       	mov    $0x55586000,%ecx
  4021b0:	ba 98 36 40 00       	mov    $0x403698,%edx
  4021b5:	be 01 00 00 00       	mov    $0x1,%esi
  4021ba:	48 8b 3d ff 32 20 00 	mov    0x2032ff(%rip),%rdi        # 6054c0 <stderr@@GLIBC_2.2.5>
  4021c1:	b8 00 00 00 00       	mov    $0x0,%eax
  4021c6:	e8 55 ec ff ff       	callq  400e20 <__fprintf_chk@plt>
  4021cb:	bf 01 00 00 00       	mov    $0x1,%edi
  4021d0:	e8 2b ec ff ff       	callq  400e00 <exit@plt>
  4021d5:	48 8d 90 f8 ff 0f 00 	lea    0xffff8(%rax),%rdx
  4021dc:	48 89 15 4d 3f 20 00 	mov    %rdx,0x203f4d(%rip)        # 606130 <stack_top>
  4021e3:	48 89 e0             	mov    %rsp,%rax
  4021e6:	48 89 d4             	mov    %rdx,%rsp
  4021e9:	48 89 c2             	mov    %rax,%rdx
  4021ec:	48 89 15 ed 32 20 00 	mov    %rdx,0x2032ed(%rip)        # 6054e0 <global_save_stack>
  4021f3:	48 8b 3d ee 32 20 00 	mov    0x2032ee(%rip),%rdi        # 6054e8 <global_offset>
  4021fa:	e8 ba fe ff ff       	callq  4020b9 <launch>
  4021ff:	48 8b 05 da 32 20 00 	mov    0x2032da(%rip),%rax        # 6054e0 <global_save_stack>
  402206:	48 89 c4             	mov    %rax,%rsp
  402209:	be 00 00 10 00       	mov    $0x100000,%esi
  40220e:	48 89 df             	mov    %rbx,%rdi
  402211:	e8 8a eb ff ff       	callq  400da0 <munmap@plt>
  402216:	5b                   	pop    %rbx
  402217:	c3                   	retq   

0000000000402218 <rio_readinitb>:
  402218:	89 37                	mov    %esi,(%rdi)
  40221a:	c7 47 04 00 00 00 00 	movl   $0x0,0x4(%rdi)
  402221:	48 8d 47 10          	lea    0x10(%rdi),%rax
  402225:	48 89 47 08          	mov    %rax,0x8(%rdi)
  402229:	c3                   	retq   

000000000040222a <sigalrm_handler>:
  40222a:	48 83 ec 08          	sub    $0x8,%rsp
  40222e:	b9 00 00 00 00       	mov    $0x0,%ecx
  402233:	ba d0 36 40 00       	mov    $0x4036d0,%edx
  402238:	be 01 00 00 00       	mov    $0x1,%esi
  40223d:	48 8b 3d 7c 32 20 00 	mov    0x20327c(%rip),%rdi        # 6054c0 <stderr@@GLIBC_2.2.5>
  402244:	b8 00 00 00 00       	mov    $0x0,%eax
  402249:	e8 d2 eb ff ff       	callq  400e20 <__fprintf_chk@plt>
  40224e:	bf 01 00 00 00       	mov    $0x1,%edi
  402253:	e8 a8 eb ff ff       	callq  400e00 <exit@plt>

0000000000402258 <rio_writen>:
  402258:	41 55                	push   %r13
  40225a:	41 54                	push   %r12
  40225c:	55                   	push   %rbp
  40225d:	53                   	push   %rbx
  40225e:	48 83 ec 08          	sub    $0x8,%rsp
  402262:	41 89 fc             	mov    %edi,%r12d
  402265:	48 89 f5             	mov    %rsi,%rbp
  402268:	49 89 d5             	mov    %rdx,%r13
  40226b:	48 89 d3             	mov    %rdx,%rbx
  40226e:	eb 28                	jmp    402298 <rio_writen+0x40>
  402270:	48 89 da             	mov    %rbx,%rdx
  402273:	48 89 ee             	mov    %rbp,%rsi
  402276:	44 89 e7             	mov    %r12d,%edi
  402279:	e8 12 ea ff ff       	callq  400c90 <write@plt>
  40227e:	48 85 c0             	test   %rax,%rax
  402281:	7f 0f                	jg     402292 <rio_writen+0x3a>
  402283:	e8 b8 e9 ff ff       	callq  400c40 <__errno_location@plt>
  402288:	83 38 04             	cmpl   $0x4,(%rax)
  40228b:	75 15                	jne    4022a2 <rio_writen+0x4a>
  40228d:	b8 00 00 00 00       	mov    $0x0,%eax
  402292:	48 29 c3             	sub    %rax,%rbx
  402295:	48 01 c5             	add    %rax,%rbp
  402298:	48 85 db             	test   %rbx,%rbx
  40229b:	75 d3                	jne    402270 <rio_writen+0x18>
  40229d:	4c 89 e8             	mov    %r13,%rax
  4022a0:	eb 07                	jmp    4022a9 <rio_writen+0x51>
  4022a2:	48 c7 c0 ff ff ff ff 	mov    $0xffffffffffffffff,%rax
  4022a9:	48 83 c4 08          	add    $0x8,%rsp
  4022ad:	5b                   	pop    %rbx
  4022ae:	5d                   	pop    %rbp
  4022af:	41 5c                	pop    %r12
  4022b1:	41 5d                	pop    %r13
  4022b3:	c3                   	retq   

00000000004022b4 <rio_read>:
  4022b4:	41 55                	push   %r13
  4022b6:	41 54                	push   %r12
  4022b8:	55                   	push   %rbp
  4022b9:	53                   	push   %rbx
  4022ba:	48 83 ec 08          	sub    $0x8,%rsp
  4022be:	48 89 fb             	mov    %rdi,%rbx
  4022c1:	49 89 f5             	mov    %rsi,%r13
  4022c4:	49 89 d4             	mov    %rdx,%r12
  4022c7:	eb 2e                	jmp    4022f7 <rio_read+0x43>
  4022c9:	48 8d 6b 10          	lea    0x10(%rbx),%rbp
  4022cd:	8b 3b                	mov    (%rbx),%edi
  4022cf:	ba 00 20 00 00       	mov    $0x2000,%edx
  4022d4:	48 89 ee             	mov    %rbp,%rsi
  4022d7:	e8 14 ea ff ff       	callq  400cf0 <read@plt>
  4022dc:	89 43 04             	mov    %eax,0x4(%rbx)
  4022df:	85 c0                	test   %eax,%eax
  4022e1:	79 0c                	jns    4022ef <rio_read+0x3b>
  4022e3:	e8 58 e9 ff ff       	callq  400c40 <__errno_location@plt>
  4022e8:	83 38 04             	cmpl   $0x4,(%rax)
  4022eb:	74 0a                	je     4022f7 <rio_read+0x43>
  4022ed:	eb 37                	jmp    402326 <rio_read+0x72>
  4022ef:	85 c0                	test   %eax,%eax
  4022f1:	74 3c                	je     40232f <rio_read+0x7b>
  4022f3:	48 89 6b 08          	mov    %rbp,0x8(%rbx)
  4022f7:	8b 6b 04             	mov    0x4(%rbx),%ebp
  4022fa:	85 ed                	test   %ebp,%ebp
  4022fc:	7e cb                	jle    4022c9 <rio_read+0x15>
  4022fe:	89 e8                	mov    %ebp,%eax
  402300:	49 39 c4             	cmp    %rax,%r12
  402303:	77 03                	ja     402308 <rio_read+0x54>
  402305:	44 89 e5             	mov    %r12d,%ebp
  402308:	4c 63 e5             	movslq %ebp,%r12
  40230b:	48 8b 73 08          	mov    0x8(%rbx),%rsi
  40230f:	4c 89 e2             	mov    %r12,%rdx
  402312:	4c 89 ef             	mov    %r13,%rdi
  402315:	e8 36 ea ff ff       	callq  400d50 <memcpy@plt>
  40231a:	4c 01 63 08          	add    %r12,0x8(%rbx)
  40231e:	29 6b 04             	sub    %ebp,0x4(%rbx)
  402321:	4c 89 e0             	mov    %r12,%rax
  402324:	eb 0e                	jmp    402334 <rio_read+0x80>
  402326:	48 c7 c0 ff ff ff ff 	mov    $0xffffffffffffffff,%rax
  40232d:	eb 05                	jmp    402334 <rio_read+0x80>
  40232f:	b8 00 00 00 00       	mov    $0x0,%eax
  402334:	48 83 c4 08          	add    $0x8,%rsp
  402338:	5b                   	pop    %rbx
  402339:	5d                   	pop    %rbp
  40233a:	41 5c                	pop    %r12
  40233c:	41 5d                	pop    %r13
  40233e:	c3                   	retq   

000000000040233f <rio_readlineb>:
  40233f:	41 55                	push   %r13
  402341:	41 54                	push   %r12
  402343:	55                   	push   %rbp
  402344:	53                   	push   %rbx
  402345:	48 83 ec 18          	sub    $0x18,%rsp
  402349:	49 89 fd             	mov    %rdi,%r13
  40234c:	48 89 f5             	mov    %rsi,%rbp
  40234f:	49 89 d4             	mov    %rdx,%r12
  402352:	64 48 8b 04 25 28 00 	mov    %fs:0x28,%rax
  402359:	00 00 
  40235b:	48 89 44 24 08       	mov    %rax,0x8(%rsp)
  402360:	31 c0                	xor    %eax,%eax
  402362:	bb 01 00 00 00       	mov    $0x1,%ebx
  402367:	eb 3f                	jmp    4023a8 <rio_readlineb+0x69>
  402369:	ba 01 00 00 00       	mov    $0x1,%edx
  40236e:	48 8d 74 24 07       	lea    0x7(%rsp),%rsi
  402373:	4c 89 ef             	mov    %r13,%rdi
  402376:	e8 39 ff ff ff       	callq  4022b4 <rio_read>
  40237b:	83 f8 01             	cmp    $0x1,%eax
  40237e:	75 15                	jne    402395 <rio_readlineb+0x56>
  402380:	48 8d 45 01          	lea    0x1(%rbp),%rax
  402384:	0f b6 54 24 07       	movzbl 0x7(%rsp),%edx
  402389:	88 55 00             	mov    %dl,0x0(%rbp)
  40238c:	80 7c 24 07 0a       	cmpb   $0xa,0x7(%rsp)
  402391:	75 0e                	jne    4023a1 <rio_readlineb+0x62>
  402393:	eb 1a                	jmp    4023af <rio_readlineb+0x70>
  402395:	85 c0                	test   %eax,%eax
  402397:	75 22                	jne    4023bb <rio_readlineb+0x7c>
  402399:	48 83 fb 01          	cmp    $0x1,%rbx
  40239d:	75 13                	jne    4023b2 <rio_readlineb+0x73>
  40239f:	eb 23                	jmp    4023c4 <rio_readlineb+0x85>
  4023a1:	48 83 c3 01          	add    $0x1,%rbx
  4023a5:	48 89 c5             	mov    %rax,%rbp
  4023a8:	4c 39 e3             	cmp    %r12,%rbx
  4023ab:	72 bc                	jb     402369 <rio_readlineb+0x2a>
  4023ad:	eb 03                	jmp    4023b2 <rio_readlineb+0x73>
  4023af:	48 89 c5             	mov    %rax,%rbp
  4023b2:	c6 45 00 00          	movb   $0x0,0x0(%rbp)
  4023b6:	48 89 d8             	mov    %rbx,%rax
  4023b9:	eb 0e                	jmp    4023c9 <rio_readlineb+0x8a>
  4023bb:	48 c7 c0 ff ff ff ff 	mov    $0xffffffffffffffff,%rax
  4023c2:	eb 05                	jmp    4023c9 <rio_readlineb+0x8a>
  4023c4:	b8 00 00 00 00       	mov    $0x0,%eax
  4023c9:	48 8b 4c 24 08       	mov    0x8(%rsp),%rcx
  4023ce:	64 48 33 0c 25 28 00 	xor    %fs:0x28,%rcx
  4023d5:	00 00 
  4023d7:	74 05                	je     4023de <rio_readlineb+0x9f>
  4023d9:	e8 c2 e8 ff ff       	callq  400ca0 <__stack_chk_fail@plt>
  4023de:	48 83 c4 18          	add    $0x18,%rsp
  4023e2:	5b                   	pop    %rbx
  4023e3:	5d                   	pop    %rbp
  4023e4:	41 5c                	pop    %r12
  4023e6:	41 5d                	pop    %r13
  4023e8:	c3                   	retq   

00000000004023e9 <urlencode>:
  4023e9:	41 54                	push   %r12
  4023eb:	55                   	push   %rbp
  4023ec:	53                   	push   %rbx
  4023ed:	48 83 ec 10          	sub    $0x10,%rsp
  4023f1:	48 89 fb             	mov    %rdi,%rbx
  4023f4:	48 89 f5             	mov    %rsi,%rbp
  4023f7:	64 48 8b 04 25 28 00 	mov    %fs:0x28,%rax
  4023fe:	00 00 
  402400:	48 89 44 24 08       	mov    %rax,0x8(%rsp)
  402405:	31 c0                	xor    %eax,%eax
  402407:	48 c7 c1 ff ff ff ff 	mov    $0xffffffffffffffff,%rcx
  40240e:	f2 ae                	repnz scas %es:(%rdi),%al
  402410:	48 f7 d1             	not    %rcx
  402413:	8d 41 ff             	lea    -0x1(%rcx),%eax
  402416:	e9 aa 00 00 00       	jmpq   4024c5 <urlencode+0xdc>
  40241b:	44 0f b6 03          	movzbl (%rbx),%r8d
  40241f:	41 80 f8 2a          	cmp    $0x2a,%r8b
  402423:	0f 94 c2             	sete   %dl
  402426:	41 80 f8 2d          	cmp    $0x2d,%r8b
  40242a:	0f 94 c0             	sete   %al
  40242d:	08 c2                	or     %al,%dl
  40242f:	75 24                	jne    402455 <urlencode+0x6c>
  402431:	41 80 f8 2e          	cmp    $0x2e,%r8b
  402435:	74 1e                	je     402455 <urlencode+0x6c>
  402437:	41 80 f8 5f          	cmp    $0x5f,%r8b
  40243b:	74 18                	je     402455 <urlencode+0x6c>
  40243d:	41 8d 40 d0          	lea    -0x30(%r8),%eax
  402441:	3c 09                	cmp    $0x9,%al
  402443:	76 10                	jbe    402455 <urlencode+0x6c>
  402445:	41 8d 40 bf          	lea    -0x41(%r8),%eax
  402449:	3c 19                	cmp    $0x19,%al
  40244b:	76 08                	jbe    402455 <urlencode+0x6c>
  40244d:	41 8d 40 9f          	lea    -0x61(%r8),%eax
  402451:	3c 19                	cmp    $0x19,%al
  402453:	77 0a                	ja     40245f <urlencode+0x76>
  402455:	44 88 45 00          	mov    %r8b,0x0(%rbp)
  402459:	48 8d 6d 01          	lea    0x1(%rbp),%rbp
  40245d:	eb 5f                	jmp    4024be <urlencode+0xd5>
  40245f:	41 80 f8 20          	cmp    $0x20,%r8b
  402463:	75 0a                	jne    40246f <urlencode+0x86>
  402465:	c6 45 00 2b          	movb   $0x2b,0x0(%rbp)
  402469:	48 8d 6d 01          	lea    0x1(%rbp),%rbp
  40246d:	eb 4f                	jmp    4024be <urlencode+0xd5>
  40246f:	41 8d 40 e0          	lea    -0x20(%r8),%eax
  402473:	3c 5f                	cmp    $0x5f,%al
  402475:	0f 96 c2             	setbe  %dl
  402478:	41 80 f8 09          	cmp    $0x9,%r8b
  40247c:	0f 94 c0             	sete   %al
  40247f:	08 c2                	or     %al,%dl
  402481:	74 50                	je     4024d3 <urlencode+0xea>
  402483:	45 0f b6 c0          	movzbl %r8b,%r8d
  402487:	b9 68 37 40 00       	mov    $0x403768,%ecx
  40248c:	ba 08 00 00 00       	mov    $0x8,%edx
  402491:	be 01 00 00 00       	mov    $0x1,%esi
  402496:	48 89 e7             	mov    %rsp,%rdi
  402499:	b8 00 00 00 00       	mov    $0x0,%eax
  40249e:	e8 8d e9 ff ff       	callq  400e30 <__sprintf_chk@plt>
  4024a3:	0f b6 04 24          	movzbl (%rsp),%eax
  4024a7:	88 45 00             	mov    %al,0x0(%rbp)
  4024aa:	0f b6 44 24 01       	movzbl 0x1(%rsp),%eax
  4024af:	88 45 01             	mov    %al,0x1(%rbp)
  4024b2:	0f b6 44 24 02       	movzbl 0x2(%rsp),%eax
  4024b7:	88 45 02             	mov    %al,0x2(%rbp)
  4024ba:	48 8d 6d 03          	lea    0x3(%rbp),%rbp
  4024be:	48 83 c3 01          	add    $0x1,%rbx
  4024c2:	44 89 e0             	mov    %r12d,%eax
  4024c5:	44 8d 60 ff          	lea    -0x1(%rax),%r12d
  4024c9:	85 c0                	test   %eax,%eax
  4024cb:	0f 85 4a ff ff ff    	jne    40241b <urlencode+0x32>
  4024d1:	eb 05                	jmp    4024d8 <urlencode+0xef>
  4024d3:	b8 ff ff ff ff       	mov    $0xffffffff,%eax
  4024d8:	48 8b 74 24 08       	mov    0x8(%rsp),%rsi
  4024dd:	64 48 33 34 25 28 00 	xor    %fs:0x28,%rsi
  4024e4:	00 00 
  4024e6:	74 05                	je     4024ed <urlencode+0x104>
  4024e8:	e8 b3 e7 ff ff       	callq  400ca0 <__stack_chk_fail@plt>
  4024ed:	48 83 c4 10          	add    $0x10,%rsp
  4024f1:	5b                   	pop    %rbx
  4024f2:	5d                   	pop    %rbp
  4024f3:	41 5c                	pop    %r12
  4024f5:	c3                   	retq   

00000000004024f6 <submitr>:
  4024f6:	41 57                	push   %r15
  4024f8:	41 56                	push   %r14
  4024fa:	41 55                	push   %r13
  4024fc:	41 54                	push   %r12
  4024fe:	55                   	push   %rbp
  4024ff:	53                   	push   %rbx
  402500:	48 81 ec 58 a0 00 00 	sub    $0xa058,%rsp
  402507:	49 89 fc             	mov    %rdi,%r12
  40250a:	89 74 24 04          	mov    %esi,0x4(%rsp)
  40250e:	49 89 d7             	mov    %rdx,%r15
  402511:	49 89 ce             	mov    %rcx,%r14
  402514:	4c 89 44 24 08       	mov    %r8,0x8(%rsp)
  402519:	4d 89 cd             	mov    %r9,%r13
  40251c:	48 8b 9c 24 90 a0 00 	mov    0xa090(%rsp),%rbx
  402523:	00 
  402524:	64 48 8b 04 25 28 00 	mov    %fs:0x28,%rax
  40252b:	00 00 
  40252d:	48 89 84 24 48 a0 00 	mov    %rax,0xa048(%rsp)
  402534:	00 
  402535:	31 c0                	xor    %eax,%eax
  402537:	c7 44 24 1c 00 00 00 	movl   $0x0,0x1c(%rsp)
  40253e:	00 
  40253f:	ba 00 00 00 00       	mov    $0x0,%edx
  402544:	be 01 00 00 00       	mov    $0x1,%esi
  402549:	bf 02 00 00 00       	mov    $0x2,%edi
  40254e:	e8 ed e8 ff ff       	callq  400e40 <socket@plt>
  402553:	85 c0                	test   %eax,%eax
  402555:	79 4e                	jns    4025a5 <submitr+0xaf>
  402557:	48 b8 45 72 72 6f 72 	movabs $0x43203a726f727245,%rax
  40255e:	3a 20 43 
  402561:	48 89 03             	mov    %rax,(%rbx)
  402564:	48 b8 6c 69 65 6e 74 	movabs $0x6e7520746e65696c,%rax
  40256b:	20 75 6e 
  40256e:	48 89 43 08          	mov    %rax,0x8(%rbx)
  402572:	48 b8 61 62 6c 65 20 	movabs $0x206f7420656c6261,%rax
  402579:	74 6f 20 
  40257c:	48 89 43 10          	mov    %rax,0x10(%rbx)
  402580:	48 b8 63 72 65 61 74 	movabs $0x7320657461657263,%rax
  402587:	65 20 73 
  40258a:	48 89 43 18          	mov    %rax,0x18(%rbx)
  40258e:	c7 43 20 6f 63 6b 65 	movl   $0x656b636f,0x20(%rbx)
  402595:	66 c7 43 24 74 00    	movw   $0x74,0x24(%rbx)
  40259b:	b8 ff ff ff ff       	mov    $0xffffffff,%eax
  4025a0:	e9 97 06 00 00       	jmpq   402c3c <submitr+0x746>
  4025a5:	89 c5                	mov    %eax,%ebp
  4025a7:	4c 89 e7             	mov    %r12,%rdi
  4025aa:	e8 71 e7 ff ff       	callq  400d20 <gethostbyname@plt>
  4025af:	48 85 c0             	test   %rax,%rax
  4025b2:	75 67                	jne    40261b <submitr+0x125>
  4025b4:	48 b8 45 72 72 6f 72 	movabs $0x44203a726f727245,%rax
  4025bb:	3a 20 44 
  4025be:	48 89 03             	mov    %rax,(%rbx)
  4025c1:	48 b8 4e 53 20 69 73 	movabs $0x6e7520736920534e,%rax
  4025c8:	20 75 6e 
  4025cb:	48 89 43 08          	mov    %rax,0x8(%rbx)
  4025cf:	48 b8 61 62 6c 65 20 	movabs $0x206f7420656c6261,%rax
  4025d6:	74 6f 20 
  4025d9:	48 89 43 10          	mov    %rax,0x10(%rbx)
  4025dd:	48 b8 72 65 73 6f 6c 	movabs $0x2065766c6f736572,%rax
  4025e4:	76 65 20 
  4025e7:	48 89 43 18          	mov    %rax,0x18(%rbx)
  4025eb:	48 b8 73 65 72 76 65 	movabs $0x6120726576726573,%rax
  4025f2:	72 20 61 
  4025f5:	48 89 43 20          	mov    %rax,0x20(%rbx)
  4025f9:	c7 43 28 64 64 72 65 	movl   $0x65726464,0x28(%rbx)
  402600:	66 c7 43 2c 73 73    	movw   $0x7373,0x2c(%rbx)
  402606:	c6 43 2e 00          	movb   $0x0,0x2e(%rbx)
  40260a:	89 ef                	mov    %ebp,%edi
  40260c:	e8 cf e6 ff ff       	callq  400ce0 <close@plt>
  402611:	b8 ff ff ff ff       	mov    $0xffffffff,%eax
  402616:	e9 21 06 00 00       	jmpq   402c3c <submitr+0x746>
  40261b:	48 c7 44 24 20 00 00 	movq   $0x0,0x20(%rsp)
  402622:	00 00 
  402624:	48 c7 44 24 28 00 00 	movq   $0x0,0x28(%rsp)
  40262b:	00 00 
  40262d:	66 c7 44 24 20 02 00 	movw   $0x2,0x20(%rsp)
  402634:	48 63 50 14          	movslq 0x14(%rax),%rdx
  402638:	48 8b 40 18          	mov    0x18(%rax),%rax
  40263c:	48 8b 30             	mov    (%rax),%rsi
  40263f:	48 8d 7c 24 24       	lea    0x24(%rsp),%rdi
  402644:	b9 0c 00 00 00       	mov    $0xc,%ecx
  402649:	e8 e2 e6 ff ff       	callq  400d30 <__memmove_chk@plt>
  40264e:	0f b7 44 24 04       	movzwl 0x4(%rsp),%eax
  402653:	66 c1 c8 08          	ror    $0x8,%ax
  402657:	66 89 44 24 22       	mov    %ax,0x22(%rsp)
  40265c:	ba 10 00 00 00       	mov    $0x10,%edx
  402661:	48 8d 74 24 20       	lea    0x20(%rsp),%rsi
  402666:	89 ef                	mov    %ebp,%edi
  402668:	e8 a3 e7 ff ff       	callq  400e10 <connect@plt>
  40266d:	85 c0                	test   %eax,%eax
  40266f:	79 59                	jns    4026ca <submitr+0x1d4>
  402671:	48 b8 45 72 72 6f 72 	movabs $0x55203a726f727245,%rax
  402678:	3a 20 55 
  40267b:	48 89 03             	mov    %rax,(%rbx)
  40267e:	48 b8 6e 61 62 6c 65 	movabs $0x6f7420656c62616e,%rax
  402685:	20 74 6f 
  402688:	48 89 43 08          	mov    %rax,0x8(%rbx)
  40268c:	48 b8 20 63 6f 6e 6e 	movabs $0x7463656e6e6f6320,%rax
  402693:	65 63 74 
  402696:	48 89 43 10          	mov    %rax,0x10(%rbx)
  40269a:	48 b8 20 74 6f 20 74 	movabs $0x20656874206f7420,%rax
  4026a1:	68 65 20 
  4026a4:	48 89 43 18          	mov    %rax,0x18(%rbx)
  4026a8:	c7 43 20 73 65 72 76 	movl   $0x76726573,0x20(%rbx)
  4026af:	66 c7 43 24 65 72    	movw   $0x7265,0x24(%rbx)
  4026b5:	c6 43 26 00          	movb   $0x0,0x26(%rbx)
  4026b9:	89 ef                	mov    %ebp,%edi
  4026bb:	e8 20 e6 ff ff       	callq  400ce0 <close@plt>
  4026c0:	b8 ff ff ff ff       	mov    $0xffffffff,%eax
  4026c5:	e9 72 05 00 00       	jmpq   402c3c <submitr+0x746>
  4026ca:	48 c7 c6 ff ff ff ff 	mov    $0xffffffffffffffff,%rsi
  4026d1:	b8 00 00 00 00       	mov    $0x0,%eax
  4026d6:	48 89 f1             	mov    %rsi,%rcx
  4026d9:	4c 89 ef             	mov    %r13,%rdi
  4026dc:	f2 ae                	repnz scas %es:(%rdi),%al
  4026de:	48 f7 d1             	not    %rcx
  4026e1:	48 89 ca             	mov    %rcx,%rdx
  4026e4:	48 89 f1             	mov    %rsi,%rcx
  4026e7:	4c 89 ff             	mov    %r15,%rdi
  4026ea:	f2 ae                	repnz scas %es:(%rdi),%al
  4026ec:	48 f7 d1             	not    %rcx
  4026ef:	49 89 c8             	mov    %rcx,%r8
  4026f2:	48 89 f1             	mov    %rsi,%rcx
  4026f5:	4c 89 f7             	mov    %r14,%rdi
  4026f8:	f2 ae                	repnz scas %es:(%rdi),%al
  4026fa:	48 f7 d1             	not    %rcx
  4026fd:	4d 8d 44 08 fe       	lea    -0x2(%r8,%rcx,1),%r8
  402702:	48 89 f1             	mov    %rsi,%rcx
  402705:	48 8b 7c 24 08       	mov    0x8(%rsp),%rdi
  40270a:	f2 ae                	repnz scas %es:(%rdi),%al
  40270c:	48 89 c8             	mov    %rcx,%rax
  40270f:	48 f7 d0             	not    %rax
  402712:	49 8d 4c 00 ff       	lea    -0x1(%r8,%rax,1),%rcx
  402717:	48 8d 44 52 fd       	lea    -0x3(%rdx,%rdx,2),%rax
  40271c:	48 8d 84 01 80 00 00 	lea    0x80(%rcx,%rax,1),%rax
  402723:	00 
  402724:	48 3d 00 20 00 00    	cmp    $0x2000,%rax
  40272a:	76 72                	jbe    40279e <submitr+0x2a8>
  40272c:	48 b8 45 72 72 6f 72 	movabs $0x52203a726f727245,%rax
  402733:	3a 20 52 
  402736:	48 89 03             	mov    %rax,(%rbx)
  402739:	48 b8 65 73 75 6c 74 	movabs $0x747320746c757365,%rax
  402740:	20 73 74 
  402743:	48 89 43 08          	mov    %rax,0x8(%rbx)
  402747:	48 b8 72 69 6e 67 20 	movabs $0x6f6f7420676e6972,%rax
  40274e:	74 6f 6f 
  402751:	48 89 43 10          	mov    %rax,0x10(%rbx)
  402755:	48 b8 20 6c 61 72 67 	movabs $0x202e656772616c20,%rax
  40275c:	65 2e 20 
  40275f:	48 89 43 18          	mov    %rax,0x18(%rbx)
  402763:	48 b8 49 6e 63 72 65 	movabs $0x6573616572636e49,%rax
  40276a:	61 73 65 
  40276d:	48 89 43 20          	mov    %rax,0x20(%rbx)
  402771:	48 b8 20 53 55 42 4d 	movabs $0x5254494d42555320,%rax
  402778:	49 54 52 
  40277b:	48 89 43 28          	mov    %rax,0x28(%rbx)
  40277f:	48 b8 5f 4d 41 58 42 	movabs $0x46554258414d5f,%rax
  402786:	55 46 00 
  402789:	48 89 43 30          	mov    %rax,0x30(%rbx)
  40278d:	89 ef                	mov    %ebp,%edi
  40278f:	e8 4c e5 ff ff       	callq  400ce0 <close@plt>
  402794:	b8 ff ff ff ff       	mov    $0xffffffff,%eax
  402799:	e9 9e 04 00 00       	jmpq   402c3c <submitr+0x746>
  40279e:	48 8d b4 24 40 40 00 	lea    0x4040(%rsp),%rsi
  4027a5:	00 
  4027a6:	b9 00 04 00 00       	mov    $0x400,%ecx
  4027ab:	b8 00 00 00 00       	mov    $0x0,%eax
  4027b0:	48 89 f7             	mov    %rsi,%rdi
  4027b3:	f3 48 ab             	rep stos %rax,%es:(%rdi)
  4027b6:	4c 89 ef             	mov    %r13,%rdi
  4027b9:	e8 2b fc ff ff       	callq  4023e9 <urlencode>
  4027be:	85 c0                	test   %eax,%eax
  4027c0:	0f 89 8a 00 00 00    	jns    402850 <submitr+0x35a>
  4027c6:	48 b8 45 72 72 6f 72 	movabs $0x52203a726f727245,%rax
  4027cd:	3a 20 52 
  4027d0:	48 89 03             	mov    %rax,(%rbx)
  4027d3:	48 b8 65 73 75 6c 74 	movabs $0x747320746c757365,%rax
  4027da:	20 73 74 
  4027dd:	48 89 43 08          	mov    %rax,0x8(%rbx)
  4027e1:	48 b8 72 69 6e 67 20 	movabs $0x6e6f6320676e6972,%rax
  4027e8:	63 6f 6e 
  4027eb:	48 89 43 10          	mov    %rax,0x10(%rbx)
  4027ef:	48 b8 74 61 69 6e 73 	movabs $0x6e6120736e696174,%rax
  4027f6:	20 61 6e 
  4027f9:	48 89 43 18          	mov    %rax,0x18(%rbx)
  4027fd:	48 b8 20 69 6c 6c 65 	movabs $0x6c6167656c6c6920,%rax
  402804:	67 61 6c 
  402807:	48 89 43 20          	mov    %rax,0x20(%rbx)
  40280b:	48 b8 20 6f 72 20 75 	movabs $0x72706e7520726f20,%rax
  402812:	6e 70 72 
  402815:	48 89 43 28          	mov    %rax,0x28(%rbx)
  402819:	48 b8 69 6e 74 61 62 	movabs $0x20656c6261746e69,%rax
  402820:	6c 65 20 
  402823:	48 89 43 30          	mov    %rax,0x30(%rbx)
  402827:	48 b8 63 68 61 72 61 	movabs $0x6574636172616863,%rax
  40282e:	63 74 65 
  402831:	48 89 43 38          	mov    %rax,0x38(%rbx)
  402835:	66 c7 43 40 72 2e    	movw   $0x2e72,0x40(%rbx)
  40283b:	c6 43 42 00          	movb   $0x0,0x42(%rbx)
  40283f:	89 ef                	mov    %ebp,%edi
  402841:	e8 9a e4 ff ff       	callq  400ce0 <close@plt>
  402846:	b8 ff ff ff ff       	mov    $0xffffffff,%eax
  40284b:	e9 ec 03 00 00       	jmpq   402c3c <submitr+0x746>
  402850:	4c 8d ac 24 40 20 00 	lea    0x2040(%rsp),%r13
  402857:	00 
  402858:	41 54                	push   %r12
  40285a:	48 8d 84 24 48 40 00 	lea    0x4048(%rsp),%rax
  402861:	00 
  402862:	50                   	push   %rax
  402863:	4d 89 f9             	mov    %r15,%r9
  402866:	4d 89 f0             	mov    %r14,%r8
  402869:	b9 f8 36 40 00       	mov    $0x4036f8,%ecx
  40286e:	ba 00 20 00 00       	mov    $0x2000,%edx
  402873:	be 01 00 00 00       	mov    $0x1,%esi
  402878:	4c 89 ef             	mov    %r13,%rdi
  40287b:	b8 00 00 00 00       	mov    $0x0,%eax
  402880:	e8 ab e5 ff ff       	callq  400e30 <__sprintf_chk@plt>
  402885:	b8 00 00 00 00       	mov    $0x0,%eax
  40288a:	48 c7 c1 ff ff ff ff 	mov    $0xffffffffffffffff,%rcx
  402891:	4c 89 ef             	mov    %r13,%rdi
  402894:	f2 ae                	repnz scas %es:(%rdi),%al
  402896:	48 f7 d1             	not    %rcx
  402899:	48 8d 51 ff          	lea    -0x1(%rcx),%rdx
  40289d:	4c 89 ee             	mov    %r13,%rsi
  4028a0:	89 ef                	mov    %ebp,%edi
  4028a2:	e8 b1 f9 ff ff       	callq  402258 <rio_writen>
  4028a7:	48 83 c4 10          	add    $0x10,%rsp
  4028ab:	48 85 c0             	test   %rax,%rax
  4028ae:	79 6e                	jns    40291e <submitr+0x428>
  4028b0:	48 b8 45 72 72 6f 72 	movabs $0x43203a726f727245,%rax
  4028b7:	3a 20 43 
  4028ba:	48 89 03             	mov    %rax,(%rbx)
  4028bd:	48 b8 6c 69 65 6e 74 	movabs $0x6e7520746e65696c,%rax
  4028c4:	20 75 6e 
  4028c7:	48 89 43 08          	mov    %rax,0x8(%rbx)
  4028cb:	48 b8 61 62 6c 65 20 	movabs $0x206f7420656c6261,%rax
  4028d2:	74 6f 20 
  4028d5:	48 89 43 10          	mov    %rax,0x10(%rbx)
  4028d9:	48 b8 77 72 69 74 65 	movabs $0x6f74206574697277,%rax
  4028e0:	20 74 6f 
  4028e3:	48 89 43 18          	mov    %rax,0x18(%rbx)
  4028e7:	48 b8 20 74 68 65 20 	movabs $0x7365722065687420,%rax
  4028ee:	72 65 73 
  4028f1:	48 89 43 20          	mov    %rax,0x20(%rbx)
  4028f5:	48 b8 75 6c 74 20 73 	movabs $0x7672657320746c75,%rax
  4028fc:	65 72 76 
  4028ff:	48 89 43 28          	mov    %rax,0x28(%rbx)
  402903:	66 c7 43 30 65 72    	movw   $0x7265,0x30(%rbx)
  402909:	c6 43 32 00          	movb   $0x0,0x32(%rbx)
  40290d:	89 ef                	mov    %ebp,%edi
  40290f:	e8 cc e3 ff ff       	callq  400ce0 <close@plt>
  402914:	b8 ff ff ff ff       	mov    $0xffffffff,%eax
  402919:	e9 1e 03 00 00       	jmpq   402c3c <submitr+0x746>
  40291e:	89 ee                	mov    %ebp,%esi
  402920:	48 8d 7c 24 30       	lea    0x30(%rsp),%rdi
  402925:	e8 ee f8 ff ff       	callq  402218 <rio_readinitb>
  40292a:	ba 00 20 00 00       	mov    $0x2000,%edx
  40292f:	48 8d b4 24 40 20 00 	lea    0x2040(%rsp),%rsi
  402936:	00 
  402937:	48 8d 7c 24 30       	lea    0x30(%rsp),%rdi
  40293c:	e8 fe f9 ff ff       	callq  40233f <rio_readlineb>
  402941:	48 85 c0             	test   %rax,%rax
  402944:	7f 7d                	jg     4029c3 <submitr+0x4cd>
  402946:	48 b8 45 72 72 6f 72 	movabs $0x43203a726f727245,%rax
  40294d:	3a 20 43 
  402950:	48 89 03             	mov    %rax,(%rbx)
  402953:	48 b8 6c 69 65 6e 74 	movabs $0x6e7520746e65696c,%rax
  40295a:	20 75 6e 
  40295d:	48 89 43 08          	mov    %rax,0x8(%rbx)
  402961:	48 b8 61 62 6c 65 20 	movabs $0x206f7420656c6261,%rax
  402968:	74 6f 20 
  40296b:	48 89 43 10          	mov    %rax,0x10(%rbx)
  40296f:	48 b8 72 65 61 64 20 	movabs $0x7269662064616572,%rax
  402976:	66 69 72 
  402979:	48 89 43 18          	mov    %rax,0x18(%rbx)
  40297d:	48 b8 73 74 20 68 65 	movabs $0x6564616568207473,%rax
  402984:	61 64 65 
  402987:	48 89 43 20          	mov    %rax,0x20(%rbx)
  40298b:	48 b8 72 20 66 72 6f 	movabs $0x72206d6f72662072,%rax
  402992:	6d 20 72 
  402995:	48 89 43 28          	mov    %rax,0x28(%rbx)
  402999:	48 b8 65 73 75 6c 74 	movabs $0x657320746c757365,%rax
  4029a0:	20 73 65 
  4029a3:	48 89 43 30          	mov    %rax,0x30(%rbx)
  4029a7:	c7 43 38 72 76 65 72 	movl   $0x72657672,0x38(%rbx)
  4029ae:	c6 43 3c 00          	movb   $0x0,0x3c(%rbx)
  4029b2:	89 ef                	mov    %ebp,%edi
  4029b4:	e8 27 e3 ff ff       	callq  400ce0 <close@plt>
  4029b9:	b8 ff ff ff ff       	mov    $0xffffffff,%eax
  4029be:	e9 79 02 00 00       	jmpq   402c3c <submitr+0x746>
  4029c3:	4c 8d 84 24 40 80 00 	lea    0x8040(%rsp),%r8
  4029ca:	00 
  4029cb:	48 8d 4c 24 1c       	lea    0x1c(%rsp),%rcx
  4029d0:	48 8d 94 24 40 60 00 	lea    0x6040(%rsp),%rdx
  4029d7:	00 
  4029d8:	be 6f 37 40 00       	mov    $0x40376f,%esi
  4029dd:	48 8d bc 24 40 20 00 	lea    0x2040(%rsp),%rdi
  4029e4:	00 
  4029e5:	b8 00 00 00 00       	mov    $0x0,%eax
  4029ea:	e8 a1 e3 ff ff       	callq  400d90 <__isoc99_sscanf@plt>
  4029ef:	e9 95 00 00 00       	jmpq   402a89 <submitr+0x593>
  4029f4:	ba 00 20 00 00       	mov    $0x2000,%edx
  4029f9:	48 8d b4 24 40 20 00 	lea    0x2040(%rsp),%rsi
  402a00:	00 
  402a01:	48 8d 7c 24 30       	lea    0x30(%rsp),%rdi
  402a06:	e8 34 f9 ff ff       	callq  40233f <rio_readlineb>
  402a0b:	48 85 c0             	test   %rax,%rax
  402a0e:	7f 79                	jg     402a89 <submitr+0x593>
  402a10:	48 b8 45 72 72 6f 72 	movabs $0x43203a726f727245,%rax
  402a17:	3a 20 43 
  402a1a:	48 89 03             	mov    %rax,(%rbx)
  402a1d:	48 b8 6c 69 65 6e 74 	movabs $0x6e7520746e65696c,%rax
  402a24:	20 75 6e 
  402a27:	48 89 43 08          	mov    %rax,0x8(%rbx)
  402a2b:	48 b8 61 62 6c 65 20 	movabs $0x206f7420656c6261,%rax
  402a32:	74 6f 20 
  402a35:	48 89 43 10          	mov    %rax,0x10(%rbx)
  402a39:	48 b8 72 65 61 64 20 	movabs $0x6165682064616572,%rax
  402a40:	68 65 61 
  402a43:	48 89 43 18          	mov    %rax,0x18(%rbx)
  402a47:	48 b8 64 65 72 73 20 	movabs $0x6f72662073726564,%rax
  402a4e:	66 72 6f 
  402a51:	48 89 43 20          	mov    %rax,0x20(%rbx)
  402a55:	48 b8 6d 20 74 68 65 	movabs $0x657220656874206d,%rax
  402a5c:	20 72 65 
  402a5f:	48 89 43 28          	mov    %rax,0x28(%rbx)
  402a63:	48 b8 73 75 6c 74 20 	movabs $0x72657320746c7573,%rax
  402a6a:	73 65 72 
  402a6d:	48 89 43 30          	mov    %rax,0x30(%rbx)
  402a71:	c7 43 38 76 65 72 00 	movl   $0x726576,0x38(%rbx)
  402a78:	89 ef                	mov    %ebp,%edi
  402a7a:	e8 61 e2 ff ff       	callq  400ce0 <close@plt>
  402a7f:	b8 ff ff ff ff       	mov    $0xffffffff,%eax
  402a84:	e9 b3 01 00 00       	jmpq   402c3c <submitr+0x746>
  402a89:	0f b6 94 24 40 20 00 	movzbl 0x2040(%rsp),%edx
  402a90:	00 
  402a91:	b8 0d 00 00 00       	mov    $0xd,%eax
  402a96:	29 d0                	sub    %edx,%eax
  402a98:	75 1b                	jne    402ab5 <submitr+0x5bf>
  402a9a:	0f b6 94 24 41 20 00 	movzbl 0x2041(%rsp),%edx
  402aa1:	00 
  402aa2:	b8 0a 00 00 00       	mov    $0xa,%eax
  402aa7:	29 d0                	sub    %edx,%eax
  402aa9:	75 0a                	jne    402ab5 <submitr+0x5bf>
  402aab:	0f b6 84 24 42 20 00 	movzbl 0x2042(%rsp),%eax
  402ab2:	00 
  402ab3:	f7 d8                	neg    %eax
  402ab5:	85 c0                	test   %eax,%eax
  402ab7:	0f 85 37 ff ff ff    	jne    4029f4 <submitr+0x4fe>
  402abd:	ba 00 20 00 00       	mov    $0x2000,%edx
  402ac2:	48 8d b4 24 40 20 00 	lea    0x2040(%rsp),%rsi
  402ac9:	00 
  402aca:	48 8d 7c 24 30       	lea    0x30(%rsp),%rdi
  402acf:	e8 6b f8 ff ff       	callq  40233f <rio_readlineb>
  402ad4:	48 85 c0             	test   %rax,%rax
  402ad7:	0f 8f 83 00 00 00    	jg     402b60 <submitr+0x66a>
  402add:	48 b8 45 72 72 6f 72 	movabs $0x43203a726f727245,%rax
  402ae4:	3a 20 43 
  402ae7:	48 89 03             	mov    %rax,(%rbx)
  402aea:	48 b8 6c 69 65 6e 74 	movabs $0x6e7520746e65696c,%rax
  402af1:	20 75 6e 
  402af4:	48 89 43 08          	mov    %rax,0x8(%rbx)
  402af8:	48 b8 61 62 6c 65 20 	movabs $0x206f7420656c6261,%rax
  402aff:	74 6f 20 
  402b02:	48 89 43 10          	mov    %rax,0x10(%rbx)
  402b06:	48 b8 72 65 61 64 20 	movabs $0x6174732064616572,%rax
  402b0d:	73 74 61 
  402b10:	48 89 43 18          	mov    %rax,0x18(%rbx)
  402b14:	48 b8 74 75 73 20 6d 	movabs $0x7373656d20737574,%rax
  402b1b:	65 73 73 
  402b1e:	48 89 43 20          	mov    %rax,0x20(%rbx)
  402b22:	48 b8 61 67 65 20 66 	movabs $0x6d6f726620656761,%rax
  402b29:	72 6f 6d 
  402b2c:	48 89 43 28          	mov    %rax,0x28(%rbx)
  402b30:	48 b8 20 72 65 73 75 	movabs $0x20746c7573657220,%rax
  402b37:	6c 74 20 
  402b3a:	48 89 43 30          	mov    %rax,0x30(%rbx)
  402b3e:	c7 43 38 73 65 72 76 	movl   $0x76726573,0x38(%rbx)
  402b45:	66 c7 43 3c 65 72    	movw   $0x7265,0x3c(%rbx)
  402b4b:	c6 43 3e 00          	movb   $0x0,0x3e(%rbx)
  402b4f:	89 ef                	mov    %ebp,%edi
  402b51:	e8 8a e1 ff ff       	callq  400ce0 <close@plt>
  402b56:	b8 ff ff ff ff       	mov    $0xffffffff,%eax
  402b5b:	e9 dc 00 00 00       	jmpq   402c3c <submitr+0x746>
  402b60:	44 8b 44 24 1c       	mov    0x1c(%rsp),%r8d
  402b65:	41 81 f8 c8 00 00 00 	cmp    $0xc8,%r8d
  402b6c:	74 37                	je     402ba5 <submitr+0x6af>
  402b6e:	4c 8d 8c 24 40 80 00 	lea    0x8040(%rsp),%r9
  402b75:	00 
  402b76:	b9 38 37 40 00       	mov    $0x403738,%ecx
  402b7b:	48 c7 c2 ff ff ff ff 	mov    $0xffffffffffffffff,%rdx
  402b82:	be 01 00 00 00       	mov    $0x1,%esi
  402b87:	48 89 df             	mov    %rbx,%rdi
  402b8a:	b8 00 00 00 00       	mov    $0x0,%eax
  402b8f:	e8 9c e2 ff ff       	callq  400e30 <__sprintf_chk@plt>
  402b94:	89 ef                	mov    %ebp,%edi
  402b96:	e8 45 e1 ff ff       	callq  400ce0 <close@plt>
  402b9b:	b8 ff ff ff ff       	mov    $0xffffffff,%eax
  402ba0:	e9 97 00 00 00       	jmpq   402c3c <submitr+0x746>
  402ba5:	48 8d b4 24 40 20 00 	lea    0x2040(%rsp),%rsi
  402bac:	00 
  402bad:	48 89 df             	mov    %rbx,%rdi
  402bb0:	e8 bb e0 ff ff       	callq  400c70 <strcpy@plt>
  402bb5:	89 ef                	mov    %ebp,%edi
  402bb7:	e8 24 e1 ff ff       	callq  400ce0 <close@plt>
  402bbc:	0f b6 03             	movzbl (%rbx),%eax
  402bbf:	ba 4f 00 00 00       	mov    $0x4f,%edx
  402bc4:	29 c2                	sub    %eax,%edx
  402bc6:	75 22                	jne    402bea <submitr+0x6f4>
  402bc8:	0f b6 4b 01          	movzbl 0x1(%rbx),%ecx
  402bcc:	b8 4b 00 00 00       	mov    $0x4b,%eax
  402bd1:	29 c8                	sub    %ecx,%eax
  402bd3:	75 17                	jne    402bec <submitr+0x6f6>
  402bd5:	0f b6 4b 02          	movzbl 0x2(%rbx),%ecx
  402bd9:	b8 0a 00 00 00       	mov    $0xa,%eax
  402bde:	29 c8                	sub    %ecx,%eax
  402be0:	75 0a                	jne    402bec <submitr+0x6f6>
  402be2:	0f b6 43 03          	movzbl 0x3(%rbx),%eax
  402be6:	f7 d8                	neg    %eax
  402be8:	eb 02                	jmp    402bec <submitr+0x6f6>
  402bea:	89 d0                	mov    %edx,%eax
  402bec:	85 c0                	test   %eax,%eax
  402bee:	74 40                	je     402c30 <submitr+0x73a>
  402bf0:	bf 80 37 40 00       	mov    $0x403780,%edi
  402bf5:	b9 05 00 00 00       	mov    $0x5,%ecx
  402bfa:	48 89 de             	mov    %rbx,%rsi
  402bfd:	f3 a6                	repz cmpsb %es:(%rdi),%ds:(%rsi)
  402bff:	0f 97 c0             	seta   %al
  402c02:	0f 92 c1             	setb   %cl
  402c05:	29 c8                	sub    %ecx,%eax
  402c07:	0f be c0             	movsbl %al,%eax
  402c0a:	85 c0                	test   %eax,%eax
  402c0c:	74 2e                	je     402c3c <submitr+0x746>
  402c0e:	85 d2                	test   %edx,%edx
  402c10:	75 13                	jne    402c25 <submitr+0x72f>
  402c12:	0f b6 43 01          	movzbl 0x1(%rbx),%eax
  402c16:	ba 4b 00 00 00       	mov    $0x4b,%edx
  402c1b:	29 c2                	sub    %eax,%edx
  402c1d:	75 06                	jne    402c25 <submitr+0x72f>
  402c1f:	0f b6 53 02          	movzbl 0x2(%rbx),%edx
  402c23:	f7 da                	neg    %edx
  402c25:	85 d2                	test   %edx,%edx
  402c27:	75 0e                	jne    402c37 <submitr+0x741>
  402c29:	b8 00 00 00 00       	mov    $0x0,%eax
  402c2e:	eb 0c                	jmp    402c3c <submitr+0x746>
  402c30:	b8 00 00 00 00       	mov    $0x0,%eax
  402c35:	eb 05                	jmp    402c3c <submitr+0x746>
  402c37:	b8 ff ff ff ff       	mov    $0xffffffff,%eax
  402c3c:	48 8b 9c 24 48 a0 00 	mov    0xa048(%rsp),%rbx
  402c43:	00 
  402c44:	64 48 33 1c 25 28 00 	xor    %fs:0x28,%rbx
  402c4b:	00 00 
  402c4d:	74 05                	je     402c54 <submitr+0x75e>
  402c4f:	e8 4c e0 ff ff       	callq  400ca0 <__stack_chk_fail@plt>
  402c54:	48 81 c4 58 a0 00 00 	add    $0xa058,%rsp
  402c5b:	5b                   	pop    %rbx
  402c5c:	5d                   	pop    %rbp
  402c5d:	41 5c                	pop    %r12
  402c5f:	41 5d                	pop    %r13
  402c61:	41 5e                	pop    %r14
  402c63:	41 5f                	pop    %r15
  402c65:	c3                   	retq   

0000000000402c66 <init_timeout>:
  402c66:	85 ff                	test   %edi,%edi
  402c68:	74 23                	je     402c8d <init_timeout+0x27>
  402c6a:	53                   	push   %rbx
  402c6b:	89 fb                	mov    %edi,%ebx
  402c6d:	85 ff                	test   %edi,%edi
  402c6f:	79 05                	jns    402c76 <init_timeout+0x10>
  402c71:	bb 00 00 00 00       	mov    $0x0,%ebx
  402c76:	be 2a 22 40 00       	mov    $0x40222a,%esi
  402c7b:	bf 0e 00 00 00       	mov    $0xe,%edi
  402c80:	e8 8b e0 ff ff       	callq  400d10 <signal@plt>
  402c85:	89 df                	mov    %ebx,%edi
  402c87:	e8 44 e0 ff ff       	callq  400cd0 <alarm@plt>
  402c8c:	5b                   	pop    %rbx
  402c8d:	f3 c3                	repz retq 

0000000000402c8f <init_driver>:
  402c8f:	55                   	push   %rbp
  402c90:	53                   	push   %rbx
  402c91:	48 83 ec 28          	sub    $0x28,%rsp
  402c95:	48 89 fd             	mov    %rdi,%rbp
  402c98:	64 48 8b 04 25 28 00 	mov    %fs:0x28,%rax
  402c9f:	00 00 
  402ca1:	48 89 44 24 18       	mov    %rax,0x18(%rsp)
  402ca6:	31 c0                	xor    %eax,%eax
  402ca8:	be 01 00 00 00       	mov    $0x1,%esi
  402cad:	bf 0d 00 00 00       	mov    $0xd,%edi
  402cb2:	e8 59 e0 ff ff       	callq  400d10 <signal@plt>
  402cb7:	be 01 00 00 00       	mov    $0x1,%esi
  402cbc:	bf 1d 00 00 00       	mov    $0x1d,%edi
  402cc1:	e8 4a e0 ff ff       	callq  400d10 <signal@plt>
  402cc6:	be 01 00 00 00       	mov    $0x1,%esi
  402ccb:	bf 1d 00 00 00       	mov    $0x1d,%edi
  402cd0:	e8 3b e0 ff ff       	callq  400d10 <signal@plt>
  402cd5:	ba 00 00 00 00       	mov    $0x0,%edx
  402cda:	be 01 00 00 00       	mov    $0x1,%esi
  402cdf:	bf 02 00 00 00       	mov    $0x2,%edi
  402ce4:	e8 57 e1 ff ff       	callq  400e40 <socket@plt>
  402ce9:	85 c0                	test   %eax,%eax
  402ceb:	79 4f                	jns    402d3c <init_driver+0xad>
  402ced:	48 b8 45 72 72 6f 72 	movabs $0x43203a726f727245,%rax
  402cf4:	3a 20 43 
  402cf7:	48 89 45 00          	mov    %rax,0x0(%rbp)
  402cfb:	48 b8 6c 69 65 6e 74 	movabs $0x6e7520746e65696c,%rax
  402d02:	20 75 6e 
  402d05:	48 89 45 08          	mov    %rax,0x8(%rbp)
  402d09:	48 b8 61 62 6c 65 20 	movabs $0x206f7420656c6261,%rax
  402d10:	74 6f 20 
  402d13:	48 89 45 10          	mov    %rax,0x10(%rbp)
  402d17:	48 b8 63 72 65 61 74 	movabs $0x7320657461657263,%rax
  402d1e:	65 20 73 
  402d21:	48 89 45 18          	mov    %rax,0x18(%rbp)
  402d25:	c7 45 20 6f 63 6b 65 	movl   $0x656b636f,0x20(%rbp)
  402d2c:	66 c7 45 24 74 00    	movw   $0x74,0x24(%rbp)
  402d32:	b8 ff ff ff ff       	mov    $0xffffffff,%eax
  402d37:	e9 2a 01 00 00       	jmpq   402e66 <init_driver+0x1d7>
  402d3c:	89 c3                	mov    %eax,%ebx
  402d3e:	bf 85 37 40 00       	mov    $0x403785,%edi
  402d43:	e8 d8 df ff ff       	callq  400d20 <gethostbyname@plt>
  402d48:	48 85 c0             	test   %rax,%rax
  402d4b:	75 68                	jne    402db5 <init_driver+0x126>
  402d4d:	48 b8 45 72 72 6f 72 	movabs $0x44203a726f727245,%rax
  402d54:	3a 20 44 
  402d57:	48 89 45 00          	mov    %rax,0x0(%rbp)
  402d5b:	48 b8 4e 53 20 69 73 	movabs $0x6e7520736920534e,%rax
  402d62:	20 75 6e 
  402d65:	48 89 45 08          	mov    %rax,0x8(%rbp)
  402d69:	48 b8 61 62 6c 65 20 	movabs $0x206f7420656c6261,%rax
  402d70:	74 6f 20 
  402d73:	48 89 45 10          	mov    %rax,0x10(%rbp)
  402d77:	48 b8 72 65 73 6f 6c 	movabs $0x2065766c6f736572,%rax
  402d7e:	76 65 20 
  402d81:	48 89 45 18          	mov    %rax,0x18(%rbp)
  402d85:	48 b8 73 65 72 76 65 	movabs $0x6120726576726573,%rax
  402d8c:	72 20 61 
  402d8f:	48 89 45 20          	mov    %rax,0x20(%rbp)
  402d93:	c7 45 28 64 64 72 65 	movl   $0x65726464,0x28(%rbp)
  402d9a:	66 c7 45 2c 73 73    	movw   $0x7373,0x2c(%rbp)
  402da0:	c6 45 2e 00          	movb   $0x0,0x2e(%rbp)
  402da4:	89 df                	mov    %ebx,%edi
  402da6:	e8 35 df ff ff       	callq  400ce0 <close@plt>
  402dab:	b8 ff ff ff ff       	mov    $0xffffffff,%eax
  402db0:	e9 b1 00 00 00       	jmpq   402e66 <init_driver+0x1d7>
  402db5:	48 c7 04 24 00 00 00 	movq   $0x0,(%rsp)
  402dbc:	00 
  402dbd:	48 c7 44 24 08 00 00 	movq   $0x0,0x8(%rsp)
  402dc4:	00 00 
  402dc6:	66 c7 04 24 02 00    	movw   $0x2,(%rsp)
  402dcc:	48 63 50 14          	movslq 0x14(%rax),%rdx
  402dd0:	48 8b 40 18          	mov    0x18(%rax),%rax
  402dd4:	48 8b 30             	mov    (%rax),%rsi
  402dd7:	48 8d 7c 24 04       	lea    0x4(%rsp),%rdi
  402ddc:	b9 0c 00 00 00       	mov    $0xc,%ecx
  402de1:	e8 4a df ff ff       	callq  400d30 <__memmove_chk@plt>
  402de6:	66 c7 44 24 02 27 17 	movw   $0x1727,0x2(%rsp)
  402ded:	ba 10 00 00 00       	mov    $0x10,%edx
  402df2:	48 89 e6             	mov    %rsp,%rsi
  402df5:	89 df                	mov    %ebx,%edi
  402df7:	e8 14 e0 ff ff       	callq  400e10 <connect@plt>
  402dfc:	85 c0                	test   %eax,%eax
  402dfe:	79 50                	jns    402e50 <init_driver+0x1c1>
  402e00:	48 b8 45 72 72 6f 72 	movabs $0x55203a726f727245,%rax
  402e07:	3a 20 55 
  402e0a:	48 89 45 00          	mov    %rax,0x0(%rbp)
  402e0e:	48 b8 6e 61 62 6c 65 	movabs $0x6f7420656c62616e,%rax
  402e15:	20 74 6f 
  402e18:	48 89 45 08          	mov    %rax,0x8(%rbp)
  402e1c:	48 b8 20 63 6f 6e 6e 	movabs $0x7463656e6e6f6320,%rax
  402e23:	65 63 74 
  402e26:	48 89 45 10          	mov    %rax,0x10(%rbp)
  402e2a:	48 b8 20 74 6f 20 73 	movabs $0x76726573206f7420,%rax
  402e31:	65 72 76 
  402e34:	48 89 45 18          	mov    %rax,0x18(%rbp)
  402e38:	66 c7 45 20 65 72    	movw   $0x7265,0x20(%rbp)
  402e3e:	c6 45 22 00          	movb   $0x0,0x22(%rbp)
  402e42:	89 df                	mov    %ebx,%edi
  402e44:	e8 97 de ff ff       	callq  400ce0 <close@plt>
  402e49:	b8 ff ff ff ff       	mov    $0xffffffff,%eax
  402e4e:	eb 16                	jmp    402e66 <init_driver+0x1d7>
  402e50:	89 df                	mov    %ebx,%edi
  402e52:	e8 89 de ff ff       	callq  400ce0 <close@plt>
  402e57:	66 c7 45 00 4f 4b    	movw   $0x4b4f,0x0(%rbp)
  402e5d:	c6 45 02 00          	movb   $0x0,0x2(%rbp)
  402e61:	b8 00 00 00 00       	mov    $0x0,%eax
  402e66:	48 8b 4c 24 18       	mov    0x18(%rsp),%rcx
  402e6b:	64 48 33 0c 25 28 00 	xor    %fs:0x28,%rcx
  402e72:	00 00 
  402e74:	74 05                	je     402e7b <init_driver+0x1ec>
  402e76:	e8 25 de ff ff       	callq  400ca0 <__stack_chk_fail@plt>
  402e7b:	48 83 c4 28          	add    $0x28,%rsp
  402e7f:	5b                   	pop    %rbx
  402e80:	5d                   	pop    %rbp
  402e81:	c3                   	retq   

0000000000402e82 <driver_post>:
  402e82:	53                   	push   %rbx
  402e83:	4c 89 cb             	mov    %r9,%rbx
  402e86:	45 85 c0             	test   %r8d,%r8d
  402e89:	74 27                	je     402eb2 <driver_post+0x30>
  402e8b:	48 89 ca             	mov    %rcx,%rdx
  402e8e:	be 94 37 40 00       	mov    $0x403794,%esi
  402e93:	bf 01 00 00 00       	mov    $0x1,%edi
  402e98:	b8 00 00 00 00       	mov    $0x0,%eax
  402e9d:	e8 0e df ff ff       	callq  400db0 <__printf_chk@plt>
  402ea2:	66 c7 03 4f 4b       	movw   $0x4b4f,(%rbx)
  402ea7:	c6 43 02 00          	movb   $0x0,0x2(%rbx)
  402eab:	b8 00 00 00 00       	mov    $0x0,%eax
  402eb0:	eb 3f                	jmp    402ef1 <driver_post+0x6f>
  402eb2:	48 85 ff             	test   %rdi,%rdi
  402eb5:	74 2c                	je     402ee3 <driver_post+0x61>
  402eb7:	80 3f 00             	cmpb   $0x0,(%rdi)
  402eba:	74 27                	je     402ee3 <driver_post+0x61>
  402ebc:	48 83 ec 08          	sub    $0x8,%rsp
  402ec0:	41 51                	push   %r9
  402ec2:	49 89 c9             	mov    %rcx,%r9
  402ec5:	49 89 d0             	mov    %rdx,%r8
  402ec8:	48 89 f9             	mov    %rdi,%rcx
  402ecb:	48 89 f2             	mov    %rsi,%rdx
  402ece:	be 17 27 00 00       	mov    $0x2717,%esi
  402ed3:	bf 85 37 40 00       	mov    $0x403785,%edi
  402ed8:	e8 19 f6 ff ff       	callq  4024f6 <submitr>
  402edd:	48 83 c4 10          	add    $0x10,%rsp
  402ee1:	eb 0e                	jmp    402ef1 <driver_post+0x6f>
  402ee3:	66 c7 03 4f 4b       	movw   $0x4b4f,(%rbx)
  402ee8:	c6 43 02 00          	movb   $0x0,0x2(%rbx)
  402eec:	b8 00 00 00 00       	mov    $0x0,%eax
  402ef1:	5b                   	pop    %rbx
  402ef2:	c3                   	retq   

0000000000402ef3 <check>:
  402ef3:	89 f8                	mov    %edi,%eax
  402ef5:	c1 e8 1c             	shr    $0x1c,%eax
  402ef8:	85 c0                	test   %eax,%eax
  402efa:	74 1d                	je     402f19 <check+0x26>
  402efc:	b9 00 00 00 00       	mov    $0x0,%ecx
  402f01:	eb 0b                	jmp    402f0e <check+0x1b>
  402f03:	89 f8                	mov    %edi,%eax
  402f05:	d3 e8                	shr    %cl,%eax
  402f07:	3c 0a                	cmp    $0xa,%al
  402f09:	74 14                	je     402f1f <check+0x2c>
  402f0b:	83 c1 08             	add    $0x8,%ecx
  402f0e:	83 f9 1f             	cmp    $0x1f,%ecx
  402f11:	7e f0                	jle    402f03 <check+0x10>
  402f13:	b8 01 00 00 00       	mov    $0x1,%eax
  402f18:	c3                   	retq   
  402f19:	b8 00 00 00 00       	mov    $0x0,%eax
  402f1e:	c3                   	retq   
  402f1f:	b8 00 00 00 00       	mov    $0x0,%eax
  402f24:	c3                   	retq   

0000000000402f25 <gencookie>:
  402f25:	53                   	push   %rbx
  402f26:	83 c7 01             	add    $0x1,%edi
  402f29:	e8 22 dd ff ff       	callq  400c50 <srandom@plt>
  402f2e:	e8 3d de ff ff       	callq  400d70 <random@plt>
  402f33:	89 c3                	mov    %eax,%ebx
  402f35:	89 c7                	mov    %eax,%edi
  402f37:	e8 b7 ff ff ff       	callq  402ef3 <check>
  402f3c:	85 c0                	test   %eax,%eax
  402f3e:	74 ee                	je     402f2e <gencookie+0x9>
  402f40:	89 d8                	mov    %ebx,%eax
  402f42:	5b                   	pop    %rbx
  402f43:	c3                   	retq   
  402f44:	66 2e 0f 1f 84 00 00 	nopw   %cs:0x0(%rax,%rax,1)
  402f4b:	00 00 00 
  402f4e:	66 90                	xchg   %ax,%ax

0000000000402f50 <__libc_csu_init>:
  402f50:	41 57                	push   %r15
  402f52:	41 56                	push   %r14
  402f54:	41 89 ff             	mov    %edi,%r15d
  402f57:	41 55                	push   %r13
  402f59:	41 54                	push   %r12
  402f5b:	4c 8d 25 ae 1e 20 00 	lea    0x201eae(%rip),%r12        # 604e10 <__frame_dummy_init_array_entry>
  402f62:	55                   	push   %rbp
  402f63:	48 8d 2d ae 1e 20 00 	lea    0x201eae(%rip),%rbp        # 604e18 <__do_global_dtors_aux_fini_array_entry>
  402f6a:	53                   	push   %rbx
  402f6b:	49 89 f6             	mov    %rsi,%r14
  402f6e:	49 89 d5             	mov    %rdx,%r13
  402f71:	4c 29 e5             	sub    %r12,%rbp
  402f74:	48 83 ec 08          	sub    $0x8,%rsp
  402f78:	48 c1 fd 03          	sar    $0x3,%rbp
  402f7c:	e8 87 dc ff ff       	callq  400c08 <_init>
  402f81:	48 85 ed             	test   %rbp,%rbp
  402f84:	74 20                	je     402fa6 <__libc_csu_init+0x56>
  402f86:	31 db                	xor    %ebx,%ebx
  402f88:	0f 1f 84 00 00 00 00 	nopl   0x0(%rax,%rax,1)
  402f8f:	00 
  402f90:	4c 89 ea             	mov    %r13,%rdx
  402f93:	4c 89 f6             	mov    %r14,%rsi
  402f96:	44 89 ff             	mov    %r15d,%edi
  402f99:	41 ff 14 dc          	callq  *(%r12,%rbx,8)
  402f9d:	48 83 c3 01          	add    $0x1,%rbx
  402fa1:	48 39 eb             	cmp    %rbp,%rbx
  402fa4:	75 ea                	jne    402f90 <__libc_csu_init+0x40>
  402fa6:	48 83 c4 08          	add    $0x8,%rsp
  402faa:	5b                   	pop    %rbx
  402fab:	5d                   	pop    %rbp
  402fac:	41 5c                	pop    %r12
  402fae:	41 5d                	pop    %r13
  402fb0:	41 5e                	pop    %r14
  402fb2:	41 5f                	pop    %r15
  402fb4:	c3                   	retq   
  402fb5:	90                   	nop
  402fb6:	66 2e 0f 1f 84 00 00 	nopw   %cs:0x0(%rax,%rax,1)
  402fbd:	00 00 00 

0000000000402fc0 <__libc_csu_fini>:
  402fc0:	f3 c3                	repz retq 

Disassembly of section .fini:

0000000000402fc4 <_fini>:
  402fc4:	48 83 ec 08          	sub    $0x8,%rsp
  402fc8:	48 83 c4 08          	add    $0x8,%rsp
  402fcc:	c3                   	retq   
